                                      1 ;--------------------------------------------------------
                                      2 ; File Created by SDCC : free open source ISO C Compiler 
                                      3 ; Version 4.3.2 #14228 (MINGW64)
                                      4 ;--------------------------------------------------------
                                      5 	.module main
                                      6 	.optsdcc -msm83
                                      7 	
                                      8 ;--------------------------------------------------------
                                      9 ; Public variables in this module
                                     10 ;--------------------------------------------------------
                                     11 	.globl _main
                                     12 	.globl _power
                                     13 	.globl __draw
                                     14 	.globl __spawn
                                     15 	.globl __smoothMove
                                     16 	.globl __control
                                     17 	.globl __bonusDraw
                                     18 	.globl __stoneDraw
                                     19 	.globl __brickDraw
                                     20 	.globl __playerDraw
                                     21 	.globl __movement
                                     22 	.globl __fieldInit
                                     23 	.globl _rand
                                     24 	.globl _initrand
                                     25 	.globl _set_sprite_data
                                     26 	.globl _set_bkg_tiles
                                     27 	.globl _set_bkg_data
                                     28 	.globl _wait_vbl_done
                                     29 	.globl _waitpadup
                                     30 	.globl _joypad
                                     31 	.globl __bonus
                                     32 	.globl __player
                                     33 	.globl __countWater
                                     34 	.globl __countCoin
                                     35 	.globl __countStone
                                     36 	.globl __countBrick
                                     37 	.globl _Water
                                     38 	.globl _Coin
                                     39 	.globl _HUD
                                     40 	.globl _BG
                                     41 	.globl _Stone
                                     42 	.globl _Brick
                                     43 	.globl _Player
                                     44 	.globl _field
                                     45 	.globl _DrawUI
                                     46 	.globl _DrawWater
                                     47 ;--------------------------------------------------------
                                     48 ; special function registers
                                     49 ;--------------------------------------------------------
                                     50 ;--------------------------------------------------------
                                     51 ; ram data
                                     52 ;--------------------------------------------------------
                                     53 	.area _DATA
      000000                         54 _field::
      000000                         55 	.ds 80
                                     56 ;--------------------------------------------------------
                                     57 ; ram data
                                     58 ;--------------------------------------------------------
                                     59 	.area _INITIALIZED
      000000                         60 _Player::
      000000                         61 	.ds 64
      000040                         62 _Brick::
      000040                         63 	.ds 192
      000100                         64 _Stone::
      000100                         65 	.ds 64
      000140                         66 _BG::
      000140                         67 	.ds 360
      0002A8                         68 _HUD::
      0002A8                         69 	.ds 496
      000498                         70 _Coin::
      000498                         71 	.ds 128
      000518                         72 _Water::
      000518                         73 	.ds 32
      000538                         74 __countBrick::
      000538                         75 	.ds 1
      000539                         76 __countStone::
      000539                         77 	.ds 1
      00053A                         78 __countCoin::
      00053A                         79 	.ds 1
      00053B                         80 __countWater::
      00053B                         81 	.ds 1
      00053C                         82 __player::
      00053C                         83 	.ds 9
      000545                         84 __bonus::
      000545                         85 	.ds 2
                                     86 ;--------------------------------------------------------
                                     87 ; absolute external ram data
                                     88 ;--------------------------------------------------------
                                     89 	.area _DABS (ABS)
                                     90 ;--------------------------------------------------------
                                     91 ; global & static initialisations
                                     92 ;--------------------------------------------------------
                                     93 	.area _HOME
                                     94 	.area _GSINIT
                                     95 	.area _GSFINAL
                                     96 	.area _GSINIT
                                     97 ;--------------------------------------------------------
                                     98 ; Home
                                     99 ;--------------------------------------------------------
                                    100 	.area _HOME
                                    101 	.area _HOME
                                    102 ;--------------------------------------------------------
                                    103 ; code
                                    104 ;--------------------------------------------------------
                                    105 	.area _CODE
                                    106 ;main.c:53: void _fieldInit(void) {
                                    107 ;	---------------------------------
                                    108 ; Function _fieldInit
                                    109 ; ---------------------------------
      000000                        110 __fieldInit::
      000000 E8 FD            [16]  111 	add	sp, #-3
                                    112 ;main.c:55: for (INT8 i = 0; i < fieldX; i++) {
      000002 F8 02            [12]  113 	ldhl	sp,	#2
      000004 36 00            [12]  114 	ld	(hl), #0x00
      000006                        115 00108$:
      000006 F8 02            [12]  116 	ldhl	sp,	#2
      000008 7E               [ 8]  117 	ld	a, (hl)
      000009 EE 80            [ 8]  118 	xor	a, #0x80
      00000B D6 88            [ 8]  119 	sub	a, #0x88
      00000D 30 31            [12]  120 	jr	NC, 00102$
                                    121 ;main.c:56: for (INT8 j = 0; j < fieldY; j++) {
      00000F 4E               [ 8]  122 	ld	c, (hl)
      000010 79               [ 4]  123 	ld	a, c
      000011 07               [ 4]  124 	rlca
      000012 9F               [ 4]  125 	sbc	a, a
      000013 47               [ 4]  126 	ld	b, a
      000014 69               [ 4]  127 	ld	l, c
      000015 60               [ 4]  128 	ld	h, b
      000016 29               [ 8]  129 	add	hl, hl
      000017 29               [ 8]  130 	add	hl, hl
      000018 09               [ 8]  131 	add	hl, bc
      000019 29               [ 8]  132 	add	hl, hl
      00001A 01r00r00         [12]  133 	ld	bc,#_field
      00001D 09               [ 8]  134 	add	hl,bc
      00001E 33               [ 8]  135 	inc	sp
      00001F 33               [ 8]  136 	inc	sp
      000020 E5               [16]  137 	push	hl
      000021 0E 00            [ 8]  138 	ld	c, #0x00
      000023                        139 00105$:
      000023 79               [ 4]  140 	ld	a, c
      000024 EE 80            [ 8]  141 	xor	a, #0x80
      000026 D6 84            [ 8]  142 	sub	a, #0x84
      000028 30 11            [12]  143 	jr	NC, 00109$
                                    144 ;main.c:57: field[i][j] = 0;
      00002A 79               [ 4]  145 	ld	a, c
      00002B 87               [ 4]  146 	add	a, a
      00002C 5F               [ 4]  147 	ld	e, a
      00002D 16 00            [ 8]  148 	ld	d, #0x00
      00002F E1               [12]  149 	pop	hl
      000030 E5               [16]  150 	push	hl
      000031 19               [ 8]  151 	add	hl, de
      000032 5D               [ 4]  152 	ld	e, l
      000033 54               [ 4]  153 	ld	d, h
      000034 AF               [ 4]  154 	xor	a, a
      000035 12               [ 8]  155 	ld	(de), a
      000036 13               [ 8]  156 	inc	de
      000037 12               [ 8]  157 	ld	(de), a
                                    158 ;main.c:56: for (INT8 j = 0; j < fieldY; j++) {
      000038 0C               [ 4]  159 	inc	c
      000039 18 E8            [12]  160 	jr	00105$
      00003B                        161 00109$:
                                    162 ;main.c:55: for (INT8 i = 0; i < fieldX; i++) {
      00003B F8 02            [12]  163 	ldhl	sp,	#2
      00003D 34               [12]  164 	inc	(hl)
      00003E 18 C6            [12]  165 	jr	00108$
      000040                        166 00102$:
                                    167 ;main.c:61: for (INT8 i = 0; i < fieldX; i++) { field[i][4] = -1; }
      000040 0E 00            [ 8]  168 	ld	c, #0x00
      000042                        169 00111$:
      000042 79               [ 4]  170 	ld	a, c
      000043 EE 80            [ 8]  171 	xor	a, #0x80
      000045 D6 88            [ 8]  172 	sub	a, #0x88
      000047 30 1A            [12]  173 	jr	NC, 00113$
      000049 79               [ 4]  174 	ld	a, c
      00004A 07               [ 4]  175 	rlca
      00004B 9F               [ 4]  176 	sbc	a, a
      00004C 47               [ 4]  177 	ld	b, a
      00004D 69               [ 4]  178 	ld	l, c
      00004E 60               [ 4]  179 	ld	h, b
      00004F 29               [ 8]  180 	add	hl, hl
      000050 29               [ 8]  181 	add	hl, hl
      000051 09               [ 8]  182 	add	hl, bc
      000052 29               [ 8]  183 	add	hl, hl
      000053 11r00r00         [12]  184 	ld	de, #_field
      000056 19               [ 8]  185 	add	hl, de
      000057 11 08 00         [12]  186 	ld	de, #0x0008
      00005A 19               [ 8]  187 	add	hl, de
      00005B 3E FF            [ 8]  188 	ld	a, #0xff
      00005D 22               [ 8]  189 	ld	(hl+), a
      00005E 36 FF            [12]  190 	ld	(hl), #0xff
      000060 0C               [ 4]  191 	inc	c
      000061 18 DF            [12]  192 	jr	00111$
      000063                        193 00113$:
                                    194 ;main.c:63: }
      000063 E8 03            [16]  195 	add	sp, #3
      000065 C9               [16]  196 	ret
                                    197 ;main.c:68: void _movement(UINT8 _dir) {
                                    198 ;	---------------------------------
                                    199 ; Function _movement
                                    200 ; ---------------------------------
      000066                        201 __movement::
      000066 E8 FA            [16]  202 	add	sp, #-6
                                    203 ;main.c:70: switch (_dir) {
      000068 4F               [ 4]  204 	ld	c, a
      000069 3D               [ 4]  205 	dec	a
      00006A 28 13            [12]  206 	jr	Z, 00101$
      00006C 79               [ 4]  207 	ld	a,c
      00006D FE 02            [ 8]  208 	cp	a,#0x02
      00006F CAr89r01         [16]  209 	jp	Z,00114$
      000072 FE 03            [ 8]  210 	cp	a,#0x03
      000074 CArA1r02         [16]  211 	jp	Z,00127$
      000077 D6 04            [ 8]  212 	sub	a, #0x04
      000079 CArB7r03         [16]  213 	jp	Z,00140$
      00007C C3rD5r04         [16]  214 	jp	00154$
                                    215 ;main.c:72: case 1:
      00007F                        216 00101$:
                                    217 ;main.c:73: if (field[_player.x + 1][_player.y] == 0 && _player.x + 1 < fieldX) { _player.x += 1; return _movement(_dir); }
      00007F FAr3Cr05         [16]  218 	ld	a, (#__player + 0)
      000082 3C               [ 4]  219 	inc	a
      000083 5F               [ 4]  220 	ld	e, a
      000084 07               [ 4]  221 	rlca
      000085 9F               [ 4]  222 	sbc	a, a
      000086 57               [ 4]  223 	ld	d, a
      000087 6B               [ 4]  224 	ld	l, e
      000088 62               [ 4]  225 	ld	h, d
      000089 29               [ 8]  226 	add	hl, hl
      00008A 29               [ 8]  227 	add	hl, hl
      00008B 19               [ 8]  228 	add	hl, de
      00008C 29               [ 8]  229 	add	hl, hl
      00008D 7D               [ 4]  230 	ld	a, l
      00008E C6r00            [ 8]  231 	add	a, #<(_field)
      000090 5F               [ 4]  232 	ld	e, a
      000091 7C               [ 4]  233 	ld	a, h
      000092 CEs00            [ 8]  234 	adc	a, #>(_field)
      000094 57               [ 4]  235 	ld	d, a
      000095 FAr3Dr05         [16]  236 	ld	a, (#__player + 1)
      000098 87               [ 4]  237 	add	a, a
      000099 47               [ 4]  238 	ld	b, a
      00009A 68               [ 4]  239 	ld	l, b
      00009B 26 00            [ 8]  240 	ld	h, #0x00
      00009D 19               [ 8]  241 	add	hl, de
      00009E 5D               [ 4]  242 	ld	e, l
      00009F 54               [ 4]  243 	ld	d, h
      0000A0 1A               [ 8]  244 	ld	a, (de)
      0000A1 F8 02            [12]  245 	ldhl	sp,	#2
      0000A3 22               [ 8]  246 	ld	(hl+), a
      0000A4 13               [ 8]  247 	inc	de
      0000A5 1A               [ 8]  248 	ld	a, (de)
      0000A6 77               [ 8]  249 	ld	(hl), a
      0000A7 FAr3Cr05         [16]  250 	ld	a, (#__player + 0)
      0000AA F8 04            [12]  251 	ldhl	sp,#4
      0000AC 22               [ 8]  252 	ld	(hl+), a
      0000AD 3C               [ 4]  253 	inc	a
      0000AE 32               [ 8]  254 	ld	(hl-), a
      0000AF 2B               [ 8]  255 	dec	hl
      0000B0 3A               [ 8]  256 	ld	a, (hl-)
      0000B1 B6               [ 8]  257 	or	a, (hl)
      0000B2 20 23            [12]  258 	jr	NZ, 00103$
      0000B4 23               [ 8]  259 	inc	hl
      0000B5 23               [ 8]  260 	inc	hl
      0000B6 7E               [ 8]  261 	ld	a, (hl)
      0000B7 5F               [ 4]  262 	ld	e, a
      0000B8 07               [ 4]  263 	rlca
      0000B9 9F               [ 4]  264 	sbc	a, a
      0000BA 57               [ 4]  265 	ld	d, a
      0000BB 6B               [ 4]  266 	ld	l, e
                                    267 ;	spillPairReg hl
                                    268 ;	spillPairReg hl
      0000BC 62               [ 4]  269 	ld	h, d
                                    270 ;	spillPairReg hl
                                    271 ;	spillPairReg hl
      0000BD 23               [ 8]  272 	inc	hl
      0000BE 7D               [ 4]  273 	ld	a, l
      0000BF D6 08            [ 8]  274 	sub	a, #0x08
      0000C1 7C               [ 4]  275 	ld	a, h
      0000C2 17               [ 4]  276 	rla
      0000C3 3F               [ 4]  277 	ccf
      0000C4 1F               [ 4]  278 	rra
      0000C5 DE 80            [ 8]  279 	sbc	a, #0x80
      0000C7 30 0E            [12]  280 	jr	NC, 00103$
      0000C9 11r3Cr05         [12]  281 	ld	de, #__player
      0000CC F8 05            [12]  282 	ldhl	sp,	#5
      0000CE 7E               [ 8]  283 	ld	a, (hl)
      0000CF 12               [ 8]  284 	ld	(de), a
      0000D0 79               [ 4]  285 	ld	a, c
      0000D1 CDr66r00         [24]  286 	call	__movement
      0000D4 C3rD5r04         [16]  287 	jp	00154$
      0000D7                        288 00103$:
                                    289 ;main.c:74: if (field[_player.x + 1][_player.y] == 2 || field[_player.x + 1][_player.y] == 3) { field[_player.x + 1][_player.y] += 1; break; }
      0000D7 F8 05            [12]  290 	ldhl	sp,	#5
      0000D9 5E               [ 8]  291 	ld	e, (hl)
      0000DA 7B               [ 4]  292 	ld	a, e
      0000DB 07               [ 4]  293 	rlca
      0000DC 9F               [ 4]  294 	sbc	a, a
      0000DD 57               [ 4]  295 	ld	d, a
      0000DE 6B               [ 4]  296 	ld	l, e
      0000DF 62               [ 4]  297 	ld	h, d
      0000E0 29               [ 8]  298 	add	hl, hl
      0000E1 29               [ 8]  299 	add	hl, hl
      0000E2 19               [ 8]  300 	add	hl, de
      0000E3 29               [ 8]  301 	add	hl, hl
      0000E4 11r00r00         [12]  302 	ld	de, #_field
      0000E7 19               [ 8]  303 	add	hl, de
      0000E8 7D               [ 4]  304 	ld	a, l
      0000E9 80               [ 4]  305 	add	a, b
      0000EA 4F               [ 4]  306 	ld	c, a
      0000EB 7C               [ 4]  307 	ld	a, h
      0000EC CE 00            [ 8]  308 	adc	a, #0x00
      0000EE 47               [ 4]  309 	ld	b, a
      0000EF 69               [ 4]  310 	ld	l, c
      0000F0 60               [ 4]  311 	ld	h, b
      0000F1 2A               [ 8]  312 	ld	a,	(hl+)
      0000F2 66               [ 8]  313 	ld	h, (hl)
                                    314 ;	spillPairReg hl
                                    315 ;	spillPairReg hl
                                    316 ;	spillPairReg hl
      0000F3 6F               [ 4]  317 	ld	l, a
      0000F4 D6 02            [ 8]  318 	sub	a, #0x02
      0000F6 B4               [ 4]  319 	or	a, h
      0000F7 28 06            [12]  320 	jr	Z, 00105$
      0000F9 7D               [ 4]  321 	ld	a, l
      0000FA D6 03            [ 8]  322 	sub	a, #0x03
      0000FC B4               [ 4]  323 	or	a, h
      0000FD 20 0B            [12]  324 	jr	NZ, 00106$
      0000FF                        325 00105$:
      0000FF 23               [ 8]  326 	inc	hl
      000100 5D               [ 4]  327 	ld	e, l
      000101 54               [ 4]  328 	ld	d, h
      000102 7B               [ 4]  329 	ld	a, e
      000103 02               [ 8]  330 	ld	(bc), a
      000104 03               [ 8]  331 	inc	bc
      000105 7A               [ 4]  332 	ld	a, d
      000106 02               [ 8]  333 	ld	(bc), a
      000107 C3rD5r04         [16]  334 	jp	00154$
      00010A                        335 00106$:
                                    336 ;main.c:75: if (field[_player.x + 1][_player.y] == 4) { field[_player.x + 1][_player.y] = 0; _countBrick += 1; _player.exp += 10;DrawUI(); break; }
      00010A 7D               [ 4]  337 	ld	a, l
      00010B D6 04            [ 8]  338 	sub	a, #0x04
      00010D B4               [ 4]  339 	or	a,h
      00010E 20 20            [12]  340 	jr	NZ, 00109$
      000110 02               [ 8]  341 	ld	(bc), a
      000111 03               [ 8]  342 	inc	bc
      000112 02               [ 8]  343 	ld	(bc), a
      000113 21r38r05         [12]  344 	ld	hl, #__countBrick
      000116 34               [12]  345 	inc	(hl)
      000117 7E               [ 8]  346 	ld	a, (hl)
      000118 21r41r05         [12]  347 	ld	hl, #(__player + 5)
      00011B 4E               [ 8]  348 	ld	c, (hl)
      00011C 23               [ 8]  349 	inc	hl
      00011D 46               [ 8]  350 	ld	b, (hl)
      00011E 21 0A 00         [12]  351 	ld	hl, #0x000a
      000121 09               [ 8]  352 	add	hl, bc
      000122 4D               [ 4]  353 	ld	c, l
      000123 44               [ 4]  354 	ld	b, h
      000124 21r41r05         [12]  355 	ld	hl, #(__player + 5)
      000127 71               [ 8]  356 	ld	(hl), c
      000128 23               [ 8]  357 	inc	hl
      000129 70               [ 8]  358 	ld	(hl), b
      00012A CDr7Dr0A         [24]  359 	call	_DrawUI
      00012D C3rD5r04         [16]  360 	jp	00154$
      000130                        361 00109$:
                                    362 ;main.c:76: if (field[_player.x + 1][_player.y] == 5) { field[_player.x + 1][_player.y] = 0; _countCoin += 1; _player.exp += 30;DrawUI(); break; }
      000130 7D               [ 4]  363 	ld	a, l
      000131 D6 05            [ 8]  364 	sub	a, #0x05
      000133 B4               [ 4]  365 	or	a,h
      000134 20 20            [12]  366 	jr	NZ, 00111$
      000136 02               [ 8]  367 	ld	(bc), a
      000137 03               [ 8]  368 	inc	bc
      000138 02               [ 8]  369 	ld	(bc), a
      000139 21r3Ar05         [12]  370 	ld	hl, #__countCoin
      00013C 34               [12]  371 	inc	(hl)
      00013D 7E               [ 8]  372 	ld	a, (hl)
      00013E 21r41r05         [12]  373 	ld	hl, #(__player + 5)
      000141 4E               [ 8]  374 	ld	c, (hl)
      000142 23               [ 8]  375 	inc	hl
      000143 46               [ 8]  376 	ld	b, (hl)
      000144 21 1E 00         [12]  377 	ld	hl, #0x001e
      000147 09               [ 8]  378 	add	hl, bc
      000148 4D               [ 4]  379 	ld	c, l
      000149 44               [ 4]  380 	ld	b, h
      00014A 21r41r05         [12]  381 	ld	hl, #(__player + 5)
      00014D 71               [ 8]  382 	ld	(hl), c
      00014E 23               [ 8]  383 	inc	hl
      00014F 70               [ 8]  384 	ld	(hl), b
      000150 CDr7Dr0A         [24]  385 	call	_DrawUI
      000153 C3rD5r04         [16]  386 	jp	00154$
      000156                        387 00111$:
                                    388 ;main.c:77: if (field[_player.x + 1][_player.y] == 6) { field[_player.x + 1][_player.y] = 0; _countWater += 1; _player.water += 100; DrawWater((_player.water / 100) + 3, 1); break; }
      000156 7D               [ 4]  389 	ld	a, l
      000157 D6 06            [ 8]  390 	sub	a, #0x06
      000159 B4               [ 4]  391 	or	a,h
      00015A C2rD5r04         [16]  392 	jp	NZ,00154$
      00015D 02               [ 8]  393 	ld	(bc), a
      00015E 03               [ 8]  394 	inc	bc
      00015F 02               [ 8]  395 	ld	(bc), a
      000160 21r3Br05         [12]  396 	ld	hl, #__countWater
      000163 34               [12]  397 	inc	(hl)
      000164 01r43r05         [12]  398 	ld	bc, #__player + 7
      000167 69               [ 4]  399 	ld	l, c
      000168 60               [ 4]  400 	ld	h, b
      000169 2A               [ 8]  401 	ld	a,	(hl+)
      00016A 66               [ 8]  402 	ld	h, (hl)
                                    403 ;	spillPairReg hl
                                    404 ;	spillPairReg hl
                                    405 ;	spillPairReg hl
      00016B C6 64            [ 8]  406 	add	a, #0x64
      00016D 5F               [ 4]  407 	ld	e, a
      00016E 7C               [ 4]  408 	ld	a, h
      00016F CE 00            [ 8]  409 	adc	a, #0x00
      000171 57               [ 4]  410 	ld	d, a
      000172 7B               [ 4]  411 	ld	a, e
      000173 02               [ 8]  412 	ld	(bc), a
      000174 03               [ 8]  413 	inc	bc
      000175 7A               [ 4]  414 	ld	a, d
      000176 02               [ 8]  415 	ld	(bc), a
      000177 01 64 00         [12]  416 	ld	bc, #0x0064
      00017A CDr00r00         [24]  417 	call	__divsint
      00017D 0C               [ 4]  418 	inc	c
      00017E 0C               [ 4]  419 	inc	c
      00017F 0C               [ 4]  420 	inc	c
      000180 1E 01            [ 8]  421 	ld	e, #0x01
      000182 79               [ 4]  422 	ld	a, c
      000183 CDr86r0B         [24]  423 	call	_DrawWater
      000186 C3rD5r04         [16]  424 	jp	00154$
                                    425 ;main.c:79: case 2:
      000189                        426 00114$:
                                    427 ;main.c:80: if (field[_player.x][_player.y + 1] == 0 && _player.y + 1 < fieldY) { _player.y += 1; return _movement(_dir); }
      000189 FAr3Cr05         [16]  428 	ld	a, (#__player + 0)
      00018C 5F               [ 4]  429 	ld	e, a
      00018D 07               [ 4]  430 	rlca
      00018E 9F               [ 4]  431 	sbc	a, a
      00018F 57               [ 4]  432 	ld	d, a
      000190 6B               [ 4]  433 	ld	l, e
      000191 62               [ 4]  434 	ld	h, d
      000192 29               [ 8]  435 	add	hl, hl
      000193 29               [ 8]  436 	add	hl, hl
      000194 19               [ 8]  437 	add	hl, de
      000195 29               [ 8]  438 	add	hl, hl
      000196 E5               [16]  439 	push	hl
      000197 7D               [ 4]  440 	ld	a, l
      000198 F8 06            [12]  441 	ldhl	sp,	#6
      00019A 77               [ 8]  442 	ld	(hl), a
      00019B E1               [12]  443 	pop	hl
      00019C 7C               [ 4]  444 	ld	a, h
      00019D F8 05            [12]  445 	ldhl	sp,	#5
      00019F 32               [ 8]  446 	ld	(hl-), a
      0001A0 2A               [ 8]  447 	ld	a, (hl+)
      0001A1 5F               [ 4]  448 	ld	e, a
      0001A2 56               [ 8]  449 	ld	d, (hl)
      0001A3 21r00r00         [12]  450 	ld	hl, #_field
      0001A6 19               [ 8]  451 	add	hl, de
      0001A7 33               [ 8]  452 	inc	sp
      0001A8 33               [ 8]  453 	inc	sp
      0001A9 E5               [16]  454 	push	hl
      0001AA 21r3Dr05         [12]  455 	ld	hl, #(__player + 1)
      0001AD 46               [ 8]  456 	ld	b, (hl)
      0001AE 78               [ 4]  457 	ld	a, b
      0001AF 3C               [ 4]  458 	inc	a
      0001B0 F8 02            [12]  459 	ldhl	sp,	#2
      0001B2 22               [ 8]  460 	ld	(hl+), a
      0001B3 87               [ 4]  461 	add	a, a
      0001B4 77               [ 8]  462 	ld	(hl), a
      0001B5 D1               [12]  463 	pop	de
      0001B6 D5               [16]  464 	push	de
      0001B7 6E               [ 8]  465 	ld	l, (hl)
      0001B8 26 00            [ 8]  466 	ld	h, #0x00
      0001BA 19               [ 8]  467 	add	hl, de
      0001BB E5               [16]  468 	push	hl
      0001BC 7D               [ 4]  469 	ld	a, l
      0001BD F8 06            [12]  470 	ldhl	sp,	#6
      0001BF 77               [ 8]  471 	ld	(hl), a
      0001C0 E1               [12]  472 	pop	hl
      0001C1 7C               [ 4]  473 	ld	a, h
      0001C2 F8 05            [12]  474 	ldhl	sp,	#5
      0001C4 32               [ 8]  475 	ld	(hl-), a
      0001C5 2A               [ 8]  476 	ld	a, (hl+)
      0001C6 5F               [ 4]  477 	ld	e, a
      0001C7 56               [ 8]  478 	ld	d, (hl)
      0001C8 1A               [ 8]  479 	ld	a, (de)
      0001C9 6F               [ 4]  480 	ld	l, a
                                    481 ;	spillPairReg hl
                                    482 ;	spillPairReg hl
      0001CA 13               [ 8]  483 	inc	de
      0001CB 1A               [ 8]  484 	ld	a, (de)
      0001CC B5               [ 4]  485 	or	a, l
      0001CD 20 1F            [12]  486 	jr	NZ, 00116$
      0001CF 78               [ 4]  487 	ld	a, b
      0001D0 6F               [ 4]  488 	ld	l, a
                                    489 ;	spillPairReg hl
                                    490 ;	spillPairReg hl
      0001D1 07               [ 4]  491 	rlca
      0001D2 9F               [ 4]  492 	sbc	a, a
      0001D3 67               [ 4]  493 	ld	h, a
                                    494 ;	spillPairReg hl
                                    495 ;	spillPairReg hl
      0001D4 23               [ 8]  496 	inc	hl
      0001D5 7D               [ 4]  497 	ld	a, l
      0001D6 D6 04            [ 8]  498 	sub	a, #0x04
      0001D8 7C               [ 4]  499 	ld	a, h
      0001D9 17               [ 4]  500 	rla
      0001DA 3F               [ 4]  501 	ccf
      0001DB 1F               [ 4]  502 	rra
      0001DC DE 80            [ 8]  503 	sbc	a, #0x80
      0001DE 30 0E            [12]  504 	jr	NC, 00116$
      0001E0 11r3Dr05         [12]  505 	ld	de, #(__player + 1)
      0001E3 F8 02            [12]  506 	ldhl	sp,	#2
      0001E5 7E               [ 8]  507 	ld	a, (hl)
      0001E6 12               [ 8]  508 	ld	(de), a
      0001E7 79               [ 4]  509 	ld	a, c
      0001E8 CDr66r00         [24]  510 	call	__movement
      0001EB C3rD5r04         [16]  511 	jp	00154$
      0001EE                        512 00116$:
                                    513 ;main.c:81: if (field[_player.x][_player.y + 1] == 2 || field[_player.x][_player.y + 1] == 3) { field[_player.x][_player.y + 1] += 1; break; }
      0001EE FAr3Cr05         [16]  514 	ld	a, (#__player + 0)
      0001F1 4F               [ 4]  515 	ld	c, a
      0001F2 07               [ 4]  516 	rlca
      0001F3 9F               [ 4]  517 	sbc	a, a
      0001F4 47               [ 4]  518 	ld	b, a
      0001F5 69               [ 4]  519 	ld	l, c
      0001F6 60               [ 4]  520 	ld	h, b
      0001F7 29               [ 8]  521 	add	hl, hl
      0001F8 29               [ 8]  522 	add	hl, hl
      0001F9 09               [ 8]  523 	add	hl, bc
      0001FA 29               [ 8]  524 	add	hl, hl
      0001FB 01r00r00         [12]  525 	ld	bc,#_field
      0001FE 09               [ 8]  526 	add	hl,bc
      0001FF 4D               [ 4]  527 	ld	c, l
      000200 44               [ 4]  528 	ld	b, h
      000201 F8 03            [12]  529 	ldhl	sp,	#3
      000203 6E               [ 8]  530 	ld	l, (hl)
      000204 26 00            [ 8]  531 	ld	h, #0x00
      000206 09               [ 8]  532 	add	hl, bc
      000207 4D               [ 4]  533 	ld	c,l
      000208 44               [ 4]  534 	ld	b,h
      000209 2A               [ 8]  535 	ld	a,	(hl+)
      00020A 66               [ 8]  536 	ld	h, (hl)
                                    537 ;	spillPairReg hl
                                    538 ;	spillPairReg hl
                                    539 ;	spillPairReg hl
      00020B 6F               [ 4]  540 	ld	l, a
      00020C D6 02            [ 8]  541 	sub	a, #0x02
      00020E B4               [ 4]  542 	or	a, h
      00020F 28 06            [12]  543 	jr	Z, 00118$
      000211 7D               [ 4]  544 	ld	a, l
      000212 D6 03            [ 8]  545 	sub	a, #0x03
      000214 B4               [ 4]  546 	or	a, h
      000215 20 0B            [12]  547 	jr	NZ, 00119$
      000217                        548 00118$:
      000217 23               [ 8]  549 	inc	hl
      000218 5D               [ 4]  550 	ld	e, l
      000219 54               [ 4]  551 	ld	d, h
      00021A 7B               [ 4]  552 	ld	a, e
      00021B 02               [ 8]  553 	ld	(bc), a
      00021C 03               [ 8]  554 	inc	bc
      00021D 7A               [ 4]  555 	ld	a, d
      00021E 02               [ 8]  556 	ld	(bc), a
      00021F C3rD5r04         [16]  557 	jp	00154$
      000222                        558 00119$:
                                    559 ;main.c:82: if (field[_player.x][_player.y + 1] == 4) { field[_player.x][_player.y + 1] = 0; _countBrick += 1; _player.exp += 10; DrawUI(); break; }
      000222 7D               [ 4]  560 	ld	a, l
      000223 D6 04            [ 8]  561 	sub	a, #0x04
      000225 B4               [ 4]  562 	or	a,h
      000226 20 20            [12]  563 	jr	NZ, 00122$
      000228 02               [ 8]  564 	ld	(bc), a
      000229 03               [ 8]  565 	inc	bc
      00022A 02               [ 8]  566 	ld	(bc), a
      00022B 21r38r05         [12]  567 	ld	hl, #__countBrick
      00022E 34               [12]  568 	inc	(hl)
      00022F 7E               [ 8]  569 	ld	a, (hl)
      000230 21r41r05         [12]  570 	ld	hl, #(__player + 5)
      000233 4E               [ 8]  571 	ld	c, (hl)
      000234 23               [ 8]  572 	inc	hl
      000235 46               [ 8]  573 	ld	b, (hl)
      000236 21 0A 00         [12]  574 	ld	hl, #0x000a
      000239 09               [ 8]  575 	add	hl, bc
      00023A 4D               [ 4]  576 	ld	c, l
      00023B 44               [ 4]  577 	ld	b, h
      00023C 21r41r05         [12]  578 	ld	hl, #(__player + 5)
      00023F 71               [ 8]  579 	ld	(hl), c
      000240 23               [ 8]  580 	inc	hl
      000241 70               [ 8]  581 	ld	(hl), b
      000242 CDr7Dr0A         [24]  582 	call	_DrawUI
      000245 C3rD5r04         [16]  583 	jp	00154$
      000248                        584 00122$:
                                    585 ;main.c:83: if (field[_player.x][_player.y + 1] == 5) { field[_player.x][_player.y + 1] = 0; _countCoin += 1; _player.exp += 30; DrawUI(); break; }
      000248 7D               [ 4]  586 	ld	a, l
      000249 D6 05            [ 8]  587 	sub	a, #0x05
      00024B B4               [ 4]  588 	or	a,h
      00024C 20 20            [12]  589 	jr	NZ, 00124$
      00024E 02               [ 8]  590 	ld	(bc), a
      00024F 03               [ 8]  591 	inc	bc
      000250 02               [ 8]  592 	ld	(bc), a
      000251 21r3Ar05         [12]  593 	ld	hl, #__countCoin
      000254 34               [12]  594 	inc	(hl)
      000255 7E               [ 8]  595 	ld	a, (hl)
      000256 21r41r05         [12]  596 	ld	hl, #(__player + 5)
      000259 4E               [ 8]  597 	ld	c, (hl)
      00025A 23               [ 8]  598 	inc	hl
      00025B 46               [ 8]  599 	ld	b, (hl)
      00025C 21 1E 00         [12]  600 	ld	hl, #0x001e
      00025F 09               [ 8]  601 	add	hl, bc
      000260 4D               [ 4]  602 	ld	c, l
      000261 44               [ 4]  603 	ld	b, h
      000262 21r41r05         [12]  604 	ld	hl, #(__player + 5)
      000265 71               [ 8]  605 	ld	(hl), c
      000266 23               [ 8]  606 	inc	hl
      000267 70               [ 8]  607 	ld	(hl), b
      000268 CDr7Dr0A         [24]  608 	call	_DrawUI
      00026B C3rD5r04         [16]  609 	jp	00154$
      00026E                        610 00124$:
                                    611 ;main.c:84: if (field[_player.x][_player.y + 1] == 6) { field[_player.x][_player.y + 1] = 0; _countWater += 1; _player.water += 100; DrawWater((_player.water / 100) + 3, 1); break; }
      00026E 7D               [ 4]  612 	ld	a, l
      00026F D6 06            [ 8]  613 	sub	a, #0x06
      000271 B4               [ 4]  614 	or	a,h
      000272 C2rD5r04         [16]  615 	jp	NZ,00154$
      000275 02               [ 8]  616 	ld	(bc), a
      000276 03               [ 8]  617 	inc	bc
      000277 02               [ 8]  618 	ld	(bc), a
      000278 21r3Br05         [12]  619 	ld	hl, #__countWater
      00027B 34               [12]  620 	inc	(hl)
      00027C 01r43r05         [12]  621 	ld	bc, #__player + 7
      00027F 69               [ 4]  622 	ld	l, c
      000280 60               [ 4]  623 	ld	h, b
      000281 2A               [ 8]  624 	ld	a,	(hl+)
      000282 66               [ 8]  625 	ld	h, (hl)
                                    626 ;	spillPairReg hl
                                    627 ;	spillPairReg hl
                                    628 ;	spillPairReg hl
      000283 C6 64            [ 8]  629 	add	a, #0x64
      000285 5F               [ 4]  630 	ld	e, a
      000286 7C               [ 4]  631 	ld	a, h
      000287 CE 00            [ 8]  632 	adc	a, #0x00
      000289 57               [ 4]  633 	ld	d, a
      00028A 7B               [ 4]  634 	ld	a, e
      00028B 02               [ 8]  635 	ld	(bc), a
      00028C 03               [ 8]  636 	inc	bc
      00028D 7A               [ 4]  637 	ld	a, d
      00028E 02               [ 8]  638 	ld	(bc), a
      00028F 01 64 00         [12]  639 	ld	bc, #0x0064
      000292 CDr00r00         [24]  640 	call	__divsint
      000295 0C               [ 4]  641 	inc	c
      000296 0C               [ 4]  642 	inc	c
      000297 0C               [ 4]  643 	inc	c
      000298 1E 01            [ 8]  644 	ld	e, #0x01
      00029A 79               [ 4]  645 	ld	a, c
      00029B CDr86r0B         [24]  646 	call	_DrawWater
      00029E C3rD5r04         [16]  647 	jp	00154$
                                    648 ;main.c:86: case 3:
      0002A1                        649 00127$:
                                    650 ;main.c:87: if (field[_player.x - 1][_player.y] == 0 && _player.x - 1 > -1) { _player.x -= 1; return _movement(_dir); }
      0002A1 FAr3Cr05         [16]  651 	ld	a, (#__player + 0)
      0002A4 3D               [ 4]  652 	dec	a
      0002A5 5F               [ 4]  653 	ld	e, a
      0002A6 07               [ 4]  654 	rlca
      0002A7 9F               [ 4]  655 	sbc	a, a
      0002A8 57               [ 4]  656 	ld	d, a
      0002A9 6B               [ 4]  657 	ld	l, e
      0002AA 62               [ 4]  658 	ld	h, d
      0002AB 29               [ 8]  659 	add	hl, hl
      0002AC 29               [ 8]  660 	add	hl, hl
      0002AD 19               [ 8]  661 	add	hl, de
      0002AE 29               [ 8]  662 	add	hl, hl
      0002AF 7D               [ 4]  663 	ld	a, l
      0002B0 C6r00            [ 8]  664 	add	a, #<(_field)
      0002B2 5F               [ 4]  665 	ld	e, a
      0002B3 7C               [ 4]  666 	ld	a, h
      0002B4 CEs00            [ 8]  667 	adc	a, #>(_field)
      0002B6 57               [ 4]  668 	ld	d, a
      0002B7 FAr3Dr05         [16]  669 	ld	a, (#__player + 1)
      0002BA 87               [ 4]  670 	add	a, a
      0002BB 47               [ 4]  671 	ld	b, a
      0002BC 68               [ 4]  672 	ld	l, b
      0002BD 26 00            [ 8]  673 	ld	h, #0x00
      0002BF 19               [ 8]  674 	add	hl, de
      0002C0 5D               [ 4]  675 	ld	e, l
      0002C1 54               [ 4]  676 	ld	d, h
      0002C2 1A               [ 8]  677 	ld	a, (de)
      0002C3 F8 02            [12]  678 	ldhl	sp,	#2
      0002C5 22               [ 8]  679 	ld	(hl+), a
      0002C6 13               [ 8]  680 	inc	de
      0002C7 1A               [ 8]  681 	ld	a, (de)
      0002C8 77               [ 8]  682 	ld	(hl), a
      0002C9 FAr3Cr05         [16]  683 	ld	a, (#__player + 0)
      0002CC F8 04            [12]  684 	ldhl	sp,#4
      0002CE 22               [ 8]  685 	ld	(hl+), a
      0002CF 3D               [ 4]  686 	dec	a
      0002D0 32               [ 8]  687 	ld	(hl-), a
      0002D1 2B               [ 8]  688 	dec	hl
      0002D2 3A               [ 8]  689 	ld	a, (hl-)
      0002D3 B6               [ 8]  690 	or	a, (hl)
      0002D4 20 2F            [12]  691 	jr	NZ, 00129$
      0002D6 23               [ 8]  692 	inc	hl
      0002D7 23               [ 8]  693 	inc	hl
      0002D8 7E               [ 8]  694 	ld	a, (hl)
      0002D9 5F               [ 4]  695 	ld	e, a
      0002DA 07               [ 4]  696 	rlca
      0002DB 9F               [ 4]  697 	sbc	a, a
      0002DC 6B               [ 4]  698 	ld	l, e
      0002DD 67               [ 4]  699 	ld	h, a
      0002DE 2B               [ 8]  700 	dec	hl
      0002DF 5C               [ 4]  701 	ld	e, h
      0002E0 3E FF            [ 8]  702 	ld	a,#0xff
      0002E2 57               [ 4]  703 	ld	d,a
      0002E3 BD               [ 4]  704 	cp	a, l
      0002E4 9C               [ 4]  705 	sbc	a, h
      0002E5 CB 7B            [ 8]  706 	bit	7, e
      0002E7 28 07            [12]  707 	jr	Z, 00374$
      0002E9 CB 7A            [ 8]  708 	bit	7, d
      0002EB 20 08            [12]  709 	jr	NZ, 00375$
      0002ED BF               [ 4]  710 	cp	a, a
      0002EE 18 05            [12]  711 	jr	00375$
      0002F0                        712 00374$:
      0002F0 CB 7A            [ 8]  713 	bit	7, d
      0002F2 28 01            [12]  714 	jr	Z, 00375$
      0002F4 37               [ 4]  715 	scf
      0002F5                        716 00375$:
      0002F5 30 0E            [12]  717 	jr	NC, 00129$
      0002F7 11r3Cr05         [12]  718 	ld	de, #__player
      0002FA F8 05            [12]  719 	ldhl	sp,	#5
      0002FC 7E               [ 8]  720 	ld	a, (hl)
      0002FD 12               [ 8]  721 	ld	(de), a
      0002FE 79               [ 4]  722 	ld	a, c
      0002FF CDr66r00         [24]  723 	call	__movement
      000302 C3rD5r04         [16]  724 	jp	00154$
      000305                        725 00129$:
                                    726 ;main.c:88: if (field[_player.x - 1][_player.y] == 2 || field[_player.x - 1][_player.y] == 3) { field[_player.x - 1][_player.y] += 1; break; }
      000305 F8 05            [12]  727 	ldhl	sp,	#5
      000307 5E               [ 8]  728 	ld	e, (hl)
      000308 7B               [ 4]  729 	ld	a, e
      000309 07               [ 4]  730 	rlca
      00030A 9F               [ 4]  731 	sbc	a, a
      00030B 57               [ 4]  732 	ld	d, a
      00030C 6B               [ 4]  733 	ld	l, e
      00030D 62               [ 4]  734 	ld	h, d
      00030E 29               [ 8]  735 	add	hl, hl
      00030F 29               [ 8]  736 	add	hl, hl
      000310 19               [ 8]  737 	add	hl, de
      000311 29               [ 8]  738 	add	hl, hl
      000312 11r00r00         [12]  739 	ld	de, #_field
      000315 19               [ 8]  740 	add	hl, de
      000316 7D               [ 4]  741 	ld	a, l
      000317 80               [ 4]  742 	add	a, b
      000318 4F               [ 4]  743 	ld	c, a
      000319 7C               [ 4]  744 	ld	a, h
      00031A CE 00            [ 8]  745 	adc	a, #0x00
      00031C 47               [ 4]  746 	ld	b, a
      00031D 69               [ 4]  747 	ld	l, c
      00031E 60               [ 4]  748 	ld	h, b
      00031F 2A               [ 8]  749 	ld	a,	(hl+)
      000320 66               [ 8]  750 	ld	h, (hl)
                                    751 ;	spillPairReg hl
                                    752 ;	spillPairReg hl
                                    753 ;	spillPairReg hl
      000321 6F               [ 4]  754 	ld	l, a
      000322 D6 02            [ 8]  755 	sub	a, #0x02
      000324 B4               [ 4]  756 	or	a, h
      000325 28 06            [12]  757 	jr	Z, 00131$
      000327 7D               [ 4]  758 	ld	a, l
      000328 D6 03            [ 8]  759 	sub	a, #0x03
      00032A B4               [ 4]  760 	or	a, h
      00032B 20 0B            [12]  761 	jr	NZ, 00132$
      00032D                        762 00131$:
      00032D 23               [ 8]  763 	inc	hl
      00032E 5D               [ 4]  764 	ld	e, l
      00032F 54               [ 4]  765 	ld	d, h
      000330 7B               [ 4]  766 	ld	a, e
      000331 02               [ 8]  767 	ld	(bc), a
      000332 03               [ 8]  768 	inc	bc
      000333 7A               [ 4]  769 	ld	a, d
      000334 02               [ 8]  770 	ld	(bc), a
      000335 C3rD5r04         [16]  771 	jp	00154$
      000338                        772 00132$:
                                    773 ;main.c:89: if (field[_player.x - 1][_player.y] == 4) { field[_player.x - 1][_player.y] = 0; _countBrick += 1; _player.exp += 10; DrawUI(); break; }
      000338 7D               [ 4]  774 	ld	a, l
      000339 D6 04            [ 8]  775 	sub	a, #0x04
      00033B B4               [ 4]  776 	or	a,h
      00033C 20 20            [12]  777 	jr	NZ, 00135$
      00033E 02               [ 8]  778 	ld	(bc), a
      00033F 03               [ 8]  779 	inc	bc
      000340 02               [ 8]  780 	ld	(bc), a
      000341 21r38r05         [12]  781 	ld	hl, #__countBrick
      000344 34               [12]  782 	inc	(hl)
      000345 7E               [ 8]  783 	ld	a, (hl)
      000346 21r41r05         [12]  784 	ld	hl, #(__player + 5)
      000349 4E               [ 8]  785 	ld	c, (hl)
      00034A 23               [ 8]  786 	inc	hl
      00034B 46               [ 8]  787 	ld	b, (hl)
      00034C 21 0A 00         [12]  788 	ld	hl, #0x000a
      00034F 09               [ 8]  789 	add	hl, bc
      000350 4D               [ 4]  790 	ld	c, l
      000351 44               [ 4]  791 	ld	b, h
      000352 21r41r05         [12]  792 	ld	hl, #(__player + 5)
      000355 71               [ 8]  793 	ld	(hl), c
      000356 23               [ 8]  794 	inc	hl
      000357 70               [ 8]  795 	ld	(hl), b
      000358 CDr7Dr0A         [24]  796 	call	_DrawUI
      00035B C3rD5r04         [16]  797 	jp	00154$
      00035E                        798 00135$:
                                    799 ;main.c:90: if (field[_player.x - 1][_player.y] == 5) { field[_player.x - 1][_player.y] = 0; _countCoin += 1; _player.exp += 30; DrawUI(); break; }
      00035E 7D               [ 4]  800 	ld	a, l
      00035F D6 05            [ 8]  801 	sub	a, #0x05
      000361 B4               [ 4]  802 	or	a,h
      000362 20 20            [12]  803 	jr	NZ, 00137$
      000364 02               [ 8]  804 	ld	(bc), a
      000365 03               [ 8]  805 	inc	bc
      000366 02               [ 8]  806 	ld	(bc), a
      000367 21r3Ar05         [12]  807 	ld	hl, #__countCoin
      00036A 34               [12]  808 	inc	(hl)
      00036B 7E               [ 8]  809 	ld	a, (hl)
      00036C 21r41r05         [12]  810 	ld	hl, #(__player + 5)
      00036F 4E               [ 8]  811 	ld	c, (hl)
      000370 23               [ 8]  812 	inc	hl
      000371 46               [ 8]  813 	ld	b, (hl)
      000372 21 1E 00         [12]  814 	ld	hl, #0x001e
      000375 09               [ 8]  815 	add	hl, bc
      000376 4D               [ 4]  816 	ld	c, l
      000377 44               [ 4]  817 	ld	b, h
      000378 21r41r05         [12]  818 	ld	hl, #(__player + 5)
      00037B 71               [ 8]  819 	ld	(hl), c
      00037C 23               [ 8]  820 	inc	hl
      00037D 70               [ 8]  821 	ld	(hl), b
      00037E CDr7Dr0A         [24]  822 	call	_DrawUI
      000381 C3rD5r04         [16]  823 	jp	00154$
      000384                        824 00137$:
                                    825 ;main.c:91: if (field[_player.x - 1][_player.y] == 6) { field[_player.x - 1][_player.y] = 0; _countWater += 1; _player.water += 100; DrawWater((_player.water / 100) + 3, 1); break; }
      000384 7D               [ 4]  826 	ld	a, l
      000385 D6 06            [ 8]  827 	sub	a, #0x06
      000387 B4               [ 4]  828 	or	a,h
      000388 C2rD5r04         [16]  829 	jp	NZ,00154$
      00038B 02               [ 8]  830 	ld	(bc), a
      00038C 03               [ 8]  831 	inc	bc
      00038D 02               [ 8]  832 	ld	(bc), a
      00038E 21r3Br05         [12]  833 	ld	hl, #__countWater
      000391 34               [12]  834 	inc	(hl)
      000392 01r43r05         [12]  835 	ld	bc, #__player + 7
      000395 69               [ 4]  836 	ld	l, c
      000396 60               [ 4]  837 	ld	h, b
      000397 2A               [ 8]  838 	ld	a,	(hl+)
      000398 66               [ 8]  839 	ld	h, (hl)
                                    840 ;	spillPairReg hl
                                    841 ;	spillPairReg hl
                                    842 ;	spillPairReg hl
      000399 C6 64            [ 8]  843 	add	a, #0x64
      00039B 5F               [ 4]  844 	ld	e, a
      00039C 7C               [ 4]  845 	ld	a, h
      00039D CE 00            [ 8]  846 	adc	a, #0x00
      00039F 57               [ 4]  847 	ld	d, a
      0003A0 7B               [ 4]  848 	ld	a, e
      0003A1 02               [ 8]  849 	ld	(bc), a
      0003A2 03               [ 8]  850 	inc	bc
      0003A3 7A               [ 4]  851 	ld	a, d
      0003A4 02               [ 8]  852 	ld	(bc), a
      0003A5 01 64 00         [12]  853 	ld	bc, #0x0064
      0003A8 CDr00r00         [24]  854 	call	__divsint
      0003AB 0C               [ 4]  855 	inc	c
      0003AC 0C               [ 4]  856 	inc	c
      0003AD 0C               [ 4]  857 	inc	c
      0003AE 1E 01            [ 8]  858 	ld	e, #0x01
      0003B0 79               [ 4]  859 	ld	a, c
      0003B1 CDr86r0B         [24]  860 	call	_DrawWater
      0003B4 C3rD5r04         [16]  861 	jp	00154$
                                    862 ;main.c:93: case 4:
      0003B7                        863 00140$:
                                    864 ;main.c:94: if (field[_player.x][_player.y - 1] == 0 && _player.y - 1 > -1) { _player.y -= 1; return _movement(_dir); }
      0003B7 FAr3Cr05         [16]  865 	ld	a, (#__player + 0)
      0003BA 5F               [ 4]  866 	ld	e, a
      0003BB 07               [ 4]  867 	rlca
      0003BC 9F               [ 4]  868 	sbc	a, a
      0003BD 57               [ 4]  869 	ld	d, a
      0003BE 6B               [ 4]  870 	ld	l, e
      0003BF 62               [ 4]  871 	ld	h, d
      0003C0 29               [ 8]  872 	add	hl, hl
      0003C1 29               [ 8]  873 	add	hl, hl
      0003C2 19               [ 8]  874 	add	hl, de
      0003C3 29               [ 8]  875 	add	hl, hl
      0003C4 E5               [16]  876 	push	hl
      0003C5 7D               [ 4]  877 	ld	a, l
      0003C6 F8 06            [12]  878 	ldhl	sp,	#6
      0003C8 77               [ 8]  879 	ld	(hl), a
      0003C9 E1               [12]  880 	pop	hl
      0003CA 7C               [ 4]  881 	ld	a, h
      0003CB F8 05            [12]  882 	ldhl	sp,	#5
      0003CD 32               [ 8]  883 	ld	(hl-), a
      0003CE 2A               [ 8]  884 	ld	a, (hl+)
      0003CF 5F               [ 4]  885 	ld	e, a
      0003D0 56               [ 8]  886 	ld	d, (hl)
      0003D1 21r00r00         [12]  887 	ld	hl, #_field
      0003D4 19               [ 8]  888 	add	hl, de
      0003D5 33               [ 8]  889 	inc	sp
      0003D6 33               [ 8]  890 	inc	sp
      0003D7 E5               [16]  891 	push	hl
      0003D8 FAr3Dr05         [16]  892 	ld	a, (#(__player + 1) + 0)
      0003DB F8 02            [12]  893 	ldhl	sp,#2
      0003DD 77               [ 8]  894 	ld	(hl), a
      0003DE 2A               [ 8]  895 	ld	a, (hl+)
      0003DF 3D               [ 4]  896 	dec	a
      0003E0 47               [ 4]  897 	ld	b, a
      0003E1 87               [ 4]  898 	add	a, a
      0003E2 77               [ 8]  899 	ld	(hl), a
      0003E3 D1               [12]  900 	pop	de
      0003E4 D5               [16]  901 	push	de
      0003E5 6E               [ 8]  902 	ld	l, (hl)
      0003E6 26 00            [ 8]  903 	ld	h, #0x00
      0003E8 19               [ 8]  904 	add	hl, de
      0003E9 E5               [16]  905 	push	hl
      0003EA 7D               [ 4]  906 	ld	a, l
      0003EB F8 06            [12]  907 	ldhl	sp,	#6
      0003ED 77               [ 8]  908 	ld	(hl), a
      0003EE E1               [12]  909 	pop	hl
      0003EF 7C               [ 4]  910 	ld	a, h
      0003F0 F8 05            [12]  911 	ldhl	sp,	#5
      0003F2 32               [ 8]  912 	ld	(hl-), a
      0003F3 2A               [ 8]  913 	ld	a, (hl+)
      0003F4 5F               [ 4]  914 	ld	e, a
      0003F5 56               [ 8]  915 	ld	d, (hl)
      0003F6 1A               [ 8]  916 	ld	a, (de)
      0003F7 6F               [ 4]  917 	ld	l, a
                                    918 ;	spillPairReg hl
                                    919 ;	spillPairReg hl
      0003F8 13               [ 8]  920 	inc	de
      0003F9 1A               [ 8]  921 	ld	a, (de)
      0003FA B5               [ 4]  922 	or	a, l
      0003FB 20 2C            [12]  923 	jr	NZ, 00142$
      0003FD F8 02            [12]  924 	ldhl	sp,	#2
      0003FF 7E               [ 8]  925 	ld	a, (hl)
      000400 5F               [ 4]  926 	ld	e, a
      000401 07               [ 4]  927 	rlca
      000402 9F               [ 4]  928 	sbc	a, a
      000403 6B               [ 4]  929 	ld	l, e
      000404 67               [ 4]  930 	ld	h, a
      000405 2B               [ 8]  931 	dec	hl
      000406 5C               [ 4]  932 	ld	e, h
      000407 3E FF            [ 8]  933 	ld	a,#0xff
      000409 57               [ 4]  934 	ld	d,a
      00040A BD               [ 4]  935 	cp	a, l
      00040B 9C               [ 4]  936 	sbc	a, h
      00040C CB 7B            [ 8]  937 	bit	7, e
      00040E 28 07            [12]  938 	jr	Z, 00385$
      000410 CB 7A            [ 8]  939 	bit	7, d
      000412 20 08            [12]  940 	jr	NZ, 00386$
      000414 BF               [ 4]  941 	cp	a, a
      000415 18 05            [12]  942 	jr	00386$
      000417                        943 00385$:
      000417 CB 7A            [ 8]  944 	bit	7, d
      000419 28 01            [12]  945 	jr	Z, 00386$
      00041B 37               [ 4]  946 	scf
      00041C                        947 00386$:
      00041C 30 0B            [12]  948 	jr	NC, 00142$
      00041E 21r3Dr05         [12]  949 	ld	hl, #(__player + 1)
      000421 70               [ 8]  950 	ld	(hl), b
      000422 79               [ 4]  951 	ld	a, c
      000423 CDr66r00         [24]  952 	call	__movement
      000426 C3rD5r04         [16]  953 	jp	00154$
      000429                        954 00142$:
                                    955 ;main.c:95: if (field[_player.x][_player.y - 1] == 2 || field[_player.x][_player.y - 1] == 3) { field[_player.x][_player.y - 1] += 1; break; }
      000429 FAr3Cr05         [16]  956 	ld	a, (#__player + 0)
      00042C 4F               [ 4]  957 	ld	c, a
      00042D 07               [ 4]  958 	rlca
      00042E 9F               [ 4]  959 	sbc	a, a
      00042F 47               [ 4]  960 	ld	b, a
      000430 69               [ 4]  961 	ld	l, c
      000431 60               [ 4]  962 	ld	h, b
      000432 29               [ 8]  963 	add	hl, hl
      000433 29               [ 8]  964 	add	hl, hl
      000434 09               [ 8]  965 	add	hl, bc
      000435 29               [ 8]  966 	add	hl, hl
      000436 01r00r00         [12]  967 	ld	bc,#_field
      000439 09               [ 8]  968 	add	hl,bc
      00043A 4D               [ 4]  969 	ld	c, l
      00043B 44               [ 4]  970 	ld	b, h
      00043C F8 03            [12]  971 	ldhl	sp,	#3
      00043E 6E               [ 8]  972 	ld	l, (hl)
      00043F 26 00            [ 8]  973 	ld	h, #0x00
      000441 09               [ 8]  974 	add	hl, bc
      000442 4D               [ 4]  975 	ld	c,l
      000443 44               [ 4]  976 	ld	b,h
      000444 2A               [ 8]  977 	ld	a,	(hl+)
      000445 66               [ 8]  978 	ld	h, (hl)
                                    979 ;	spillPairReg hl
                                    980 ;	spillPairReg hl
                                    981 ;	spillPairReg hl
      000446 6F               [ 4]  982 	ld	l, a
      000447 D6 02            [ 8]  983 	sub	a, #0x02
      000449 B4               [ 4]  984 	or	a, h
      00044A 28 06            [12]  985 	jr	Z, 00144$
      00044C 7D               [ 4]  986 	ld	a, l
      00044D D6 03            [ 8]  987 	sub	a, #0x03
      00044F B4               [ 4]  988 	or	a, h
      000450 20 0A            [12]  989 	jr	NZ, 00145$
      000452                        990 00144$:
      000452 23               [ 8]  991 	inc	hl
      000453 5D               [ 4]  992 	ld	e, l
      000454 54               [ 4]  993 	ld	d, h
      000455 7B               [ 4]  994 	ld	a, e
      000456 02               [ 8]  995 	ld	(bc), a
      000457 03               [ 8]  996 	inc	bc
      000458 7A               [ 4]  997 	ld	a, d
      000459 02               [ 8]  998 	ld	(bc), a
      00045A 18 79            [12]  999 	jr	00154$
      00045C                       1000 00145$:
                                   1001 ;main.c:96: if (field[_player.x][_player.y - 1] == 4) { field[_player.x][_player.y - 1] = 0; _countBrick += 1; _player.exp += 10; DrawUI(); break; }
      00045C 7D               [ 4] 1002 	ld	a, l
      00045D D6 04            [ 8] 1003 	sub	a, #0x04
      00045F B4               [ 4] 1004 	or	a,h
      000460 20 1F            [12] 1005 	jr	NZ, 00148$
      000462 02               [ 8] 1006 	ld	(bc), a
      000463 03               [ 8] 1007 	inc	bc
      000464 02               [ 8] 1008 	ld	(bc), a
      000465 21r38r05         [12] 1009 	ld	hl, #__countBrick
      000468 34               [12] 1010 	inc	(hl)
      000469 7E               [ 8] 1011 	ld	a, (hl)
      00046A 21r41r05         [12] 1012 	ld	hl, #(__player + 5)
      00046D 4E               [ 8] 1013 	ld	c, (hl)
      00046E 23               [ 8] 1014 	inc	hl
      00046F 46               [ 8] 1015 	ld	b, (hl)
      000470 21 0A 00         [12] 1016 	ld	hl, #0x000a
      000473 09               [ 8] 1017 	add	hl, bc
      000474 4D               [ 4] 1018 	ld	c, l
      000475 44               [ 4] 1019 	ld	b, h
      000476 21r41r05         [12] 1020 	ld	hl, #(__player + 5)
      000479 71               [ 8] 1021 	ld	(hl), c
      00047A 23               [ 8] 1022 	inc	hl
      00047B 70               [ 8] 1023 	ld	(hl), b
      00047C CDr7Dr0A         [24] 1024 	call	_DrawUI
      00047F 18 54            [12] 1025 	jr	00154$
      000481                       1026 00148$:
                                   1027 ;main.c:97: if (field[_player.x][_player.y - 1] == 5) { field[_player.x][_player.y - 1] = 0; _countCoin += 1; _player.exp += 30; DrawUI(); break; }
      000481 7D               [ 4] 1028 	ld	a, l
      000482 D6 05            [ 8] 1029 	sub	a, #0x05
      000484 B4               [ 4] 1030 	or	a,h
      000485 20 1F            [12] 1031 	jr	NZ, 00150$
      000487 02               [ 8] 1032 	ld	(bc), a
      000488 03               [ 8] 1033 	inc	bc
      000489 02               [ 8] 1034 	ld	(bc), a
      00048A 21r3Ar05         [12] 1035 	ld	hl, #__countCoin
      00048D 34               [12] 1036 	inc	(hl)
      00048E 7E               [ 8] 1037 	ld	a, (hl)
      00048F 21r41r05         [12] 1038 	ld	hl, #(__player + 5)
      000492 4E               [ 8] 1039 	ld	c, (hl)
      000493 23               [ 8] 1040 	inc	hl
      000494 46               [ 8] 1041 	ld	b, (hl)
      000495 21 1E 00         [12] 1042 	ld	hl, #0x001e
      000498 09               [ 8] 1043 	add	hl, bc
      000499 4D               [ 4] 1044 	ld	c, l
      00049A 44               [ 4] 1045 	ld	b, h
      00049B 21r41r05         [12] 1046 	ld	hl, #(__player + 5)
      00049E 71               [ 8] 1047 	ld	(hl), c
      00049F 23               [ 8] 1048 	inc	hl
      0004A0 70               [ 8] 1049 	ld	(hl), b
      0004A1 CDr7Dr0A         [24] 1050 	call	_DrawUI
      0004A4 18 2F            [12] 1051 	jr	00154$
      0004A6                       1052 00150$:
                                   1053 ;main.c:98: if (field[_player.x][_player.y - 1] == 6) { field[_player.x][_player.y - 1] = 0; _countWater += 1; _player.water += 100; DrawWater((_player.water / 100) + 3, 1); break; }
      0004A6 7D               [ 4] 1054 	ld	a, l
      0004A7 D6 06            [ 8] 1055 	sub	a, #0x06
      0004A9 B4               [ 4] 1056 	or	a,h
      0004AA 20 29            [12] 1057 	jr	NZ, 00154$
      0004AC 02               [ 8] 1058 	ld	(bc), a
      0004AD 03               [ 8] 1059 	inc	bc
      0004AE 02               [ 8] 1060 	ld	(bc), a
      0004AF 21r3Br05         [12] 1061 	ld	hl, #__countWater
      0004B2 34               [12] 1062 	inc	(hl)
      0004B3 01r43r05         [12] 1063 	ld	bc, #__player + 7
      0004B6 69               [ 4] 1064 	ld	l, c
      0004B7 60               [ 4] 1065 	ld	h, b
      0004B8 2A               [ 8] 1066 	ld	a,	(hl+)
      0004B9 66               [ 8] 1067 	ld	h, (hl)
                                   1068 ;	spillPairReg hl
                                   1069 ;	spillPairReg hl
                                   1070 ;	spillPairReg hl
      0004BA C6 64            [ 8] 1071 	add	a, #0x64
      0004BC 5F               [ 4] 1072 	ld	e, a
      0004BD 7C               [ 4] 1073 	ld	a, h
      0004BE CE 00            [ 8] 1074 	adc	a, #0x00
      0004C0 57               [ 4] 1075 	ld	d, a
      0004C1 7B               [ 4] 1076 	ld	a, e
      0004C2 02               [ 8] 1077 	ld	(bc), a
      0004C3 03               [ 8] 1078 	inc	bc
      0004C4 7A               [ 4] 1079 	ld	a, d
      0004C5 02               [ 8] 1080 	ld	(bc), a
      0004C6 01 64 00         [12] 1081 	ld	bc, #0x0064
      0004C9 CDr00r00         [24] 1082 	call	__divsint
      0004CC 0C               [ 4] 1083 	inc	c
      0004CD 0C               [ 4] 1084 	inc	c
      0004CE 0C               [ 4] 1085 	inc	c
      0004CF 1E 01            [ 8] 1086 	ld	e, #0x01
      0004D1 79               [ 4] 1087 	ld	a, c
      0004D2 CDr86r0B         [24] 1088 	call	_DrawWater
                                   1089 ;main.c:100: }
      0004D5                       1090 00154$:
                                   1091 ;main.c:101: }
      0004D5 E8 06            [16] 1092 	add	sp, #6
      0004D7 C9               [16] 1093 	ret
                                   1094 ;main.c:103: void _playerDraw(void) {
                                   1095 ;	---------------------------------
                                   1096 ; Function _playerDraw
                                   1097 ; ---------------------------------
      0004D8                       1098 __playerDraw::
                                   1099 ;c:\gbdk\include\gb\gb.h:1804: shadow_OAM[nb].tile=tile;
      0004D8 21r02r00         [12] 1100 	ld	hl, #(_shadow_OAM + 2)
      0004DB 36 00            [12] 1101 	ld	(hl), #0x00
                                   1102 ;main.c:106: move_sprite(0, 8 + grid + _player.sprX, 16 + (grid * 4) + _player.sprY);
      0004DD FAr3Fr05         [16] 1103 	ld	a, (#(__player + 3) + 0)
      0004E0 C6 50            [ 8] 1104 	add	a, #0x50
      0004E2 57               [ 4] 1105 	ld	d, a
      0004E3 01r3Er05         [12] 1106 	ld	bc, #__player + 2
      0004E6 0A               [ 8] 1107 	ld	a, (bc)
      0004E7 C6 18            [ 8] 1108 	add	a, #0x18
      0004E9 5F               [ 4] 1109 	ld	e, a
                                   1110 ;c:\gbdk\include\gb\gb.h:1877: OAM_item_t * itm = &shadow_OAM[nb];
      0004EA 21r00r00         [12] 1111 	ld	hl, #_shadow_OAM
                                   1112 ;c:\gbdk\include\gb\gb.h:1878: itm->y=y, itm->x=x;
      0004ED 7A               [ 4] 1113 	ld	a, d
      0004EE 22               [ 8] 1114 	ld	(hl+), a
      0004EF 73               [ 8] 1115 	ld	(hl), e
                                   1116 ;c:\gbdk\include\gb\gb.h:1804: shadow_OAM[nb].tile=tile;
      0004F0 21r06r00         [12] 1117 	ld	hl, #(_shadow_OAM + 6)
      0004F3 36 02            [12] 1118 	ld	(hl), #0x02
                                   1119 ;main.c:108: move_sprite(1, 8 + grid + _player.sprX + 8, 16 + (grid * 4) + _player.sprY);
      0004F5 FAr3Fr05         [16] 1120 	ld	a, (#(__player + 3) + 0)
      0004F8 C6 50            [ 8] 1121 	add	a, #0x50
      0004FA 5F               [ 4] 1122 	ld	e, a
      0004FB 0A               [ 8] 1123 	ld	a, (bc)
      0004FC C6 20            [ 8] 1124 	add	a, #0x20
      0004FE 4F               [ 4] 1125 	ld	c, a
                                   1126 ;c:\gbdk\include\gb\gb.h:1877: OAM_item_t * itm = &shadow_OAM[nb];
      0004FF 21r04r00         [12] 1127 	ld	hl, #(_shadow_OAM + 4)
                                   1128 ;c:\gbdk\include\gb\gb.h:1878: itm->y=y, itm->x=x;
      000502 7B               [ 4] 1129 	ld	a, e
      000503 22               [ 8] 1130 	ld	(hl+), a
      000504 71               [ 8] 1131 	ld	(hl), c
                                   1132 ;main.c:108: move_sprite(1, 8 + grid + _player.sprX + 8, 16 + (grid * 4) + _player.sprY);
                                   1133 ;main.c:110: }
      000505 C9               [16] 1134 	ret
                                   1135 ;main.c:112: void _brickDraw(INT8 x, INT8 y, INT8 state, INT8 cnt) {
                                   1136 ;	---------------------------------
                                   1137 ; Function _brickDraw
                                   1138 ; ---------------------------------
      000506                       1139 __brickDraw::
      000506 E8 FB            [16] 1140 	add	sp, #-5
      000508 47               [ 4] 1141 	ld	b, a
      000509 7B               [ 4] 1142 	ld	a, e
                                   1143 ;main.c:117: for (UINT8 i = cnt - 2; i < 10; i += 2) {
      00050A F8 08            [12] 1144 	ldhl	sp,	#8
      00050C 4E               [ 8] 1145 	ld	c, (hl)
      00050D 0D               [ 4] 1146 	dec	c
      00050E 0D               [ 4] 1147 	dec	c
      00050F CB 37            [ 8] 1148 	swap	a
      000511 E6 F0            [ 8] 1149 	and	a, #0xf0
      000513 F5               [16] 1150 	push	af
      000514 78               [ 4] 1151 	ld	a, b
      000515 CB 37            [ 8] 1152 	swap	a
      000517 E6 F0            [ 8] 1153 	and	a, #0xf0
      000519 6F               [ 4] 1154 	ld	l, a
                                   1155 ;	spillPairReg hl
                                   1156 ;	spillPairReg hl
      00051A F1               [12] 1157 	pop	af
      00051B C6 50            [ 8] 1158 	add	a, #0x50
      00051D 47               [ 4] 1159 	ld	b, a
      00051E 7D               [ 4] 1160 	ld	a, l
      00051F C6 18            [ 8] 1161 	add	a, #0x18
      000521 5F               [ 4] 1162 	ld	e, a
      000522 7D               [ 4] 1163 	ld	a, l
      000523 C6 20            [ 8] 1164 	add	a, #0x20
      000525 57               [ 4] 1165 	ld	d, a
                                   1166 ;main.c:114: switch (state) {
      000526 F8 07            [12] 1167 	ldhl	sp,	#7
      000528 7E               [ 8] 1168 	ld	a, (hl)
      000529 D6 02            [ 8] 1169 	sub	a, #0x02
      00052B 28 12            [12] 1170 	jr	Z, 00101$
      00052D F8 07            [12] 1171 	ldhl	sp,	#7
      00052F 7E               [ 8] 1172 	ld	a, (hl)
      000530 D6 03            [ 8] 1173 	sub	a, #0x03
      000532 28 65            [12] 1174 	jr	Z, 00104$
      000534 F8 07            [12] 1175 	ldhl	sp,	#7
      000536 7E               [ 8] 1176 	ld	a, (hl)
      000537 D6 04            [ 8] 1177 	sub	a, #0x04
      000539 CArF5r05         [16] 1178 	jp	Z,00107$
      00053C C3r4Er06         [16] 1179 	jp	00129$
                                   1180 ;main.c:116: case 2:
      00053F                       1181 00101$:
                                   1182 ;main.c:117: for (UINT8 i = cnt - 2; i < 10; i += 2) {
      00053F F8 01            [12] 1183 	ldhl	sp,	#1
      000541 78               [ 4] 1184 	ld	a, b
      000542 22               [ 8] 1185 	ld	(hl+), a
      000543 78               [ 4] 1186 	ld	a, b
      000544 22               [ 8] 1187 	ld	(hl+), a
      000545 7B               [ 4] 1188 	ld	a, e
      000546 22               [ 8] 1189 	ld	(hl+), a
      000547 72               [ 8] 1190 	ld	(hl), d
      000548                       1191 00124$:
      000548 79               [ 4] 1192 	ld	a, c
      000549 D6 0A            [ 8] 1193 	sub	a, #0x0a
      00054B D2r4Er06         [16] 1194 	jp	NC, 00129$
                                   1195 ;main.c:118: set_sprite_tile(2 + i, 4);
      00054E 41               [ 4] 1196 	ld	b,c
      00054F 0C               [ 4] 1197 	inc	c
      000550 0C               [ 4] 1198 	inc	c
      000551 59               [ 4] 1199 	ld	e, c
                                   1200 ;c:\gbdk\include\gb\gb.h:1804: shadow_OAM[nb].tile=tile;
      000552 26 00            [ 8] 1201 	ld	h, #0x00
                                   1202 ;	spillPairReg hl
                                   1203 ;	spillPairReg hl
      000554 6B               [ 4] 1204 	ld	l, e
      000555 29               [ 8] 1205 	add	hl, hl
      000556 29               [ 8] 1206 	add	hl, hl
      000557 11r00r00         [12] 1207 	ld	de, #_shadow_OAM
      00055A 19               [ 8] 1208 	add	hl, de
      00055B 23               [ 8] 1209 	inc	hl
      00055C 23               [ 8] 1210 	inc	hl
      00055D 36 04            [12] 1211 	ld	(hl), #0x04
                                   1212 ;main.c:119: move_sprite(2 + i, 8 + grid + (x * 16), 16 + (grid * 4) + y * 16);
      00055F 59               [ 4] 1213 	ld	e, c
                                   1214 ;c:\gbdk\include\gb\gb.h:1877: OAM_item_t * itm = &shadow_OAM[nb];
      000560 26 00            [ 8] 1215 	ld	h, #0x00
                                   1216 ;	spillPairReg hl
                                   1217 ;	spillPairReg hl
      000562 6B               [ 4] 1218 	ld	l, e
      000563 29               [ 8] 1219 	add	hl, hl
      000564 29               [ 8] 1220 	add	hl, hl
      000565 11r00r00         [12] 1221 	ld	de, #_shadow_OAM
      000568 19               [ 8] 1222 	add	hl, de
      000569 5D               [ 4] 1223 	ld	e, l
      00056A 54               [ 4] 1224 	ld	d, h
                                   1225 ;c:\gbdk\include\gb\gb.h:1878: itm->y=y, itm->x=x;
      00056B F8 02            [12] 1226 	ldhl	sp,	#2
      00056D 2A               [ 8] 1227 	ld	a, (hl+)
      00056E 12               [ 8] 1228 	ld	(de), a
      00056F 13               [ 8] 1229 	inc	de
      000570 7E               [ 8] 1230 	ld	a, (hl)
      000571 12               [ 8] 1231 	ld	(de), a
                                   1232 ;main.c:120: set_sprite_tile(3 + i, 6);
      000572 04               [ 4] 1233 	inc	b
      000573 04               [ 4] 1234 	inc	b
      000574 04               [ 4] 1235 	inc	b
      000575 58               [ 4] 1236 	ld	e, b
                                   1237 ;c:\gbdk\include\gb\gb.h:1804: shadow_OAM[nb].tile=tile;
      000576 26 00            [ 8] 1238 	ld	h, #0x00
                                   1239 ;	spillPairReg hl
                                   1240 ;	spillPairReg hl
      000578 6B               [ 4] 1241 	ld	l, e
      000579 29               [ 8] 1242 	add	hl, hl
      00057A 29               [ 8] 1243 	add	hl, hl
      00057B 11r00r00         [12] 1244 	ld	de, #_shadow_OAM
      00057E 19               [ 8] 1245 	add	hl, de
      00057F 23               [ 8] 1246 	inc	hl
      000580 23               [ 8] 1247 	inc	hl
      000581 36 06            [12] 1248 	ld	(hl), #0x06
                                   1249 ;main.c:121: move_sprite(3 + i, 8 + grid + (x * 16) + 8, 16 + (grid * 4) + y * 16);
                                   1250 ;c:\gbdk\include\gb\gb.h:1877: OAM_item_t * itm = &shadow_OAM[nb];
      000583 26 00            [ 8] 1251 	ld	h, #0x00
                                   1252 ;	spillPairReg hl
                                   1253 ;	spillPairReg hl
      000585 68               [ 4] 1254 	ld	l, b
      000586 29               [ 8] 1255 	add	hl, hl
      000587 29               [ 8] 1256 	add	hl, hl
      000588 11r00r00         [12] 1257 	ld	de, #_shadow_OAM
      00058B 19               [ 8] 1258 	add	hl, de
      00058C 5D               [ 4] 1259 	ld	e, l
      00058D 54               [ 4] 1260 	ld	d, h
                                   1261 ;c:\gbdk\include\gb\gb.h:1878: itm->y=y, itm->x=x;
      00058E F8 01            [12] 1262 	ldhl	sp,	#1
      000590 7E               [ 8] 1263 	ld	a, (hl)
      000591 12               [ 8] 1264 	ld	(de), a
      000592 13               [ 8] 1265 	inc	de
      000593 F8 04            [12] 1266 	ldhl	sp,	#4
      000595 7E               [ 8] 1267 	ld	a, (hl)
      000596 12               [ 8] 1268 	ld	(de), a
                                   1269 ;main.c:117: for (UINT8 i = cnt - 2; i < 10; i += 2) {
      000597 18 AF            [12] 1270 	jr	00124$
                                   1271 ;main.c:126: case 3:
      000599                       1272 00104$:
                                   1273 ;main.c:127: for (UINT8 i = cnt - 2; i < 10; i += 2) {
      000599 F8 00            [12] 1274 	ldhl	sp,	#0
      00059B 78               [ 4] 1275 	ld	a, b
      00059C 22               [ 8] 1276 	ld	(hl+), a
      00059D 78               [ 4] 1277 	ld	a, b
      00059E 22               [ 8] 1278 	ld	(hl+), a
      00059F 7B               [ 4] 1279 	ld	a, e
      0005A0 22               [ 8] 1280 	ld	(hl+), a
      0005A1 72               [ 8] 1281 	ld	(hl), d
      0005A2                       1282 00126$:
                                   1283 ;main.c:128: set_sprite_tile(2 + i, 8);
      0005A2 79               [ 4] 1284 	ld	a,c
      0005A3 FE 0A            [ 8] 1285 	cp	a,#0x0a
      0005A5 D2r4Er06         [16] 1286 	jp	NC,00129$
      0005A8 C6 02            [ 8] 1287 	add	a, #0x02
      0005AA F8 04            [12] 1288 	ldhl	sp,	#4
      0005AC 77               [ 8] 1289 	ld	(hl), a
                                   1290 ;c:\gbdk\include\gb\gb.h:1804: shadow_OAM[nb].tile=tile;
      0005AD 6E               [ 8] 1291 	ld	l, (hl)
                                   1292 ;	spillPairReg hl
                                   1293 ;	spillPairReg hl
      0005AE 26 00            [ 8] 1294 	ld	h, #0x00
                                   1295 ;	spillPairReg hl
                                   1296 ;	spillPairReg hl
      0005B0 29               [ 8] 1297 	add	hl, hl
      0005B1 29               [ 8] 1298 	add	hl, hl
      0005B2 11r00r00         [12] 1299 	ld	de, #_shadow_OAM
      0005B5 19               [ 8] 1300 	add	hl, de
      0005B6 23               [ 8] 1301 	inc	hl
      0005B7 23               [ 8] 1302 	inc	hl
      0005B8 36 08            [12] 1303 	ld	(hl), #0x08
                                   1304 ;main.c:129: move_sprite(2 + i, 8 + grid + (x * 16), 16 + (grid * 4) + y * 16);
      0005BA F8 04            [12] 1305 	ldhl	sp,	#4
                                   1306 ;c:\gbdk\include\gb\gb.h:1877: OAM_item_t * itm = &shadow_OAM[nb];
      0005BC 6E               [ 8] 1307 	ld	l, (hl)
                                   1308 ;	spillPairReg hl
                                   1309 ;	spillPairReg hl
      0005BD 26 00            [ 8] 1310 	ld	h, #0x00
                                   1311 ;	spillPairReg hl
                                   1312 ;	spillPairReg hl
      0005BF 29               [ 8] 1313 	add	hl, hl
      0005C0 29               [ 8] 1314 	add	hl, hl
      0005C1 11r00r00         [12] 1315 	ld	de, #_shadow_OAM
      0005C4 19               [ 8] 1316 	add	hl, de
      0005C5 5D               [ 4] 1317 	ld	e, l
      0005C6 54               [ 4] 1318 	ld	d, h
                                   1319 ;c:\gbdk\include\gb\gb.h:1878: itm->y=y, itm->x=x;
      0005C7 F8 01            [12] 1320 	ldhl	sp,	#1
      0005C9 2A               [ 8] 1321 	ld	a, (hl+)
      0005CA 12               [ 8] 1322 	ld	(de), a
      0005CB 13               [ 8] 1323 	inc	de
      0005CC 7E               [ 8] 1324 	ld	a, (hl)
      0005CD 12               [ 8] 1325 	ld	(de), a
                                   1326 ;main.c:130: set_sprite_tile(3 + i, 10);
      0005CE 0C               [ 4] 1327 	inc	c
      0005CF 0C               [ 4] 1328 	inc	c
      0005D0 0C               [ 4] 1329 	inc	c
                                   1330 ;c:\gbdk\include\gb\gb.h:1804: shadow_OAM[nb].tile=tile;
      0005D1 69               [ 4] 1331 	ld	l, c
                                   1332 ;	spillPairReg hl
                                   1333 ;	spillPairReg hl
      0005D2 26 00            [ 8] 1334 	ld	h, #0x00
                                   1335 ;	spillPairReg hl
                                   1336 ;	spillPairReg hl
      0005D4 29               [ 8] 1337 	add	hl, hl
      0005D5 29               [ 8] 1338 	add	hl, hl
      0005D6 11r00r00         [12] 1339 	ld	de, #_shadow_OAM
      0005D9 19               [ 8] 1340 	add	hl, de
      0005DA 23               [ 8] 1341 	inc	hl
      0005DB 23               [ 8] 1342 	inc	hl
      0005DC 36 0A            [12] 1343 	ld	(hl), #0x0a
                                   1344 ;main.c:131: move_sprite(3 + i, 8 + grid + (x * 16) + 8, 16 + (grid * 4) + y * 16);
                                   1345 ;c:\gbdk\include\gb\gb.h:1877: OAM_item_t * itm = &shadow_OAM[nb];
      0005DE 11r00r00         [12] 1346 	ld	de, #_shadow_OAM+0
      0005E1 26 00            [ 8] 1347 	ld	h, #0x00
                                   1348 ;	spillPairReg hl
                                   1349 ;	spillPairReg hl
      0005E3 69               [ 4] 1350 	ld	l, c
      0005E4 29               [ 8] 1351 	add	hl, hl
      0005E5 29               [ 8] 1352 	add	hl, hl
      0005E6 19               [ 8] 1353 	add	hl, de
      0005E7 4D               [ 4] 1354 	ld	c, l
      0005E8 44               [ 4] 1355 	ld	b, h
                                   1356 ;c:\gbdk\include\gb\gb.h:1878: itm->y=y, itm->x=x;
      0005E9 F8 00            [12] 1357 	ldhl	sp,	#0
      0005EB 7E               [ 8] 1358 	ld	a, (hl)
      0005EC 02               [ 8] 1359 	ld	(bc), a
      0005ED 03               [ 8] 1360 	inc	bc
      0005EE F8 03            [12] 1361 	ldhl	sp,	#3
                                   1362 ;main.c:127: for (UINT8 i = cnt - 2; i < 10; i += 2) {
      0005F0 2A               [ 8] 1363 	ld	a, (hl+)
      0005F1 02               [ 8] 1364 	ld	(bc), a
      0005F2 4E               [ 8] 1365 	ld	c, (hl)
      0005F3 18 AD            [12] 1366 	jr	00126$
                                   1367 ;main.c:136: case 4:
      0005F5                       1368 00107$:
                                   1369 ;main.c:137: for (UINT8 i = cnt - 2; i < 10; i += 2) {
      0005F5 F8 01            [12] 1370 	ldhl	sp,	#1
      0005F7 78               [ 4] 1371 	ld	a, b
      0005F8 22               [ 8] 1372 	ld	(hl+), a
      0005F9 78               [ 4] 1373 	ld	a, b
      0005FA 22               [ 8] 1374 	ld	(hl+), a
      0005FB 7B               [ 4] 1375 	ld	a, e
      0005FC 22               [ 8] 1376 	ld	(hl+), a
      0005FD 72               [ 8] 1377 	ld	(hl), d
      0005FE                       1378 00128$:
      0005FE 79               [ 4] 1379 	ld	a, c
      0005FF D6 0A            [ 8] 1380 	sub	a, #0x0a
      000601 30 4B            [12] 1381 	jr	NC, 00129$
                                   1382 ;main.c:138: set_sprite_tile(2 + i, 12);
      000603 41               [ 4] 1383 	ld	b,c
      000604 0C               [ 4] 1384 	inc	c
      000605 0C               [ 4] 1385 	inc	c
      000606 59               [ 4] 1386 	ld	e, c
                                   1387 ;c:\gbdk\include\gb\gb.h:1804: shadow_OAM[nb].tile=tile;
      000607 26 00            [ 8] 1388 	ld	h, #0x00
                                   1389 ;	spillPairReg hl
                                   1390 ;	spillPairReg hl
      000609 6B               [ 4] 1391 	ld	l, e
      00060A 29               [ 8] 1392 	add	hl, hl
      00060B 29               [ 8] 1393 	add	hl, hl
      00060C 11r00r00         [12] 1394 	ld	de, #_shadow_OAM
      00060F 19               [ 8] 1395 	add	hl, de
      000610 23               [ 8] 1396 	inc	hl
      000611 23               [ 8] 1397 	inc	hl
      000612 36 0C            [12] 1398 	ld	(hl), #0x0c
                                   1399 ;main.c:139: move_sprite(2 + i, 8 + grid + (x * 16), 16 + (grid * 4) + y * 16);
      000614 59               [ 4] 1400 	ld	e, c
                                   1401 ;c:\gbdk\include\gb\gb.h:1877: OAM_item_t * itm = &shadow_OAM[nb];
      000615 26 00            [ 8] 1402 	ld	h, #0x00
                                   1403 ;	spillPairReg hl
                                   1404 ;	spillPairReg hl
      000617 6B               [ 4] 1405 	ld	l, e
      000618 29               [ 8] 1406 	add	hl, hl
      000619 29               [ 8] 1407 	add	hl, hl
      00061A 11r00r00         [12] 1408 	ld	de, #_shadow_OAM
      00061D 19               [ 8] 1409 	add	hl, de
      00061E 5D               [ 4] 1410 	ld	e, l
      00061F 54               [ 4] 1411 	ld	d, h
                                   1412 ;c:\gbdk\include\gb\gb.h:1878: itm->y=y, itm->x=x;
      000620 F8 02            [12] 1413 	ldhl	sp,	#2
      000622 2A               [ 8] 1414 	ld	a, (hl+)
      000623 12               [ 8] 1415 	ld	(de), a
      000624 13               [ 8] 1416 	inc	de
      000625 7E               [ 8] 1417 	ld	a, (hl)
      000626 12               [ 8] 1418 	ld	(de), a
                                   1419 ;main.c:140: set_sprite_tile(3 + i, 14);
      000627 04               [ 4] 1420 	inc	b
      000628 04               [ 4] 1421 	inc	b
      000629 04               [ 4] 1422 	inc	b
      00062A 58               [ 4] 1423 	ld	e, b
                                   1424 ;c:\gbdk\include\gb\gb.h:1804: shadow_OAM[nb].tile=tile;
      00062B 26 00            [ 8] 1425 	ld	h, #0x00
                                   1426 ;	spillPairReg hl
                                   1427 ;	spillPairReg hl
      00062D 6B               [ 4] 1428 	ld	l, e
      00062E 29               [ 8] 1429 	add	hl, hl
      00062F 29               [ 8] 1430 	add	hl, hl
      000630 11r00r00         [12] 1431 	ld	de, #_shadow_OAM
      000633 19               [ 8] 1432 	add	hl, de
      000634 23               [ 8] 1433 	inc	hl
      000635 23               [ 8] 1434 	inc	hl
      000636 36 0E            [12] 1435 	ld	(hl), #0x0e
                                   1436 ;main.c:141: move_sprite(3 + i, 8 + grid + (x * 16) + 8, 16 + (grid * 4) + y * 16);
                                   1437 ;c:\gbdk\include\gb\gb.h:1877: OAM_item_t * itm = &shadow_OAM[nb];
      000638 26 00            [ 8] 1438 	ld	h, #0x00
                                   1439 ;	spillPairReg hl
                                   1440 ;	spillPairReg hl
      00063A 68               [ 4] 1441 	ld	l, b
      00063B 29               [ 8] 1442 	add	hl, hl
      00063C 29               [ 8] 1443 	add	hl, hl
      00063D 11r00r00         [12] 1444 	ld	de, #_shadow_OAM
      000640 19               [ 8] 1445 	add	hl, de
      000641 5D               [ 4] 1446 	ld	e, l
      000642 54               [ 4] 1447 	ld	d, h
                                   1448 ;c:\gbdk\include\gb\gb.h:1878: itm->y=y, itm->x=x;
      000643 F8 01            [12] 1449 	ldhl	sp,	#1
      000645 7E               [ 8] 1450 	ld	a, (hl)
      000646 12               [ 8] 1451 	ld	(de), a
      000647 13               [ 8] 1452 	inc	de
      000648 F8 04            [12] 1453 	ldhl	sp,	#4
      00064A 7E               [ 8] 1454 	ld	a, (hl)
      00064B 12               [ 8] 1455 	ld	(de), a
                                   1456 ;main.c:137: for (UINT8 i = cnt - 2; i < 10; i += 2) {
      00064C 18 B0            [12] 1457 	jr	00128$
                                   1458 ;main.c:145: }
      00064E                       1459 00129$:
                                   1460 ;main.c:146: }
      00064E E8 05            [16] 1461 	add	sp, #5
      000650 E1               [12] 1462 	pop	hl
      000651 F1               [12] 1463 	pop	af
      000652 E9               [ 4] 1464 	jp	(hl)
                                   1465 ;main.c:148: void _stoneDraw(INT8 x, INT8 y, INT8 cnt) {
                                   1466 ;	---------------------------------
                                   1467 ; Function _stoneDraw
                                   1468 ; ---------------------------------
      000653                       1469 __stoneDraw::
      000653 E8 FD            [16] 1470 	add	sp, #-3
      000655 4F               [ 4] 1471 	ld	c, a
      000656 7B               [ 4] 1472 	ld	a, e
                                   1473 ;main.c:150: for (UINT8 i = cnt - 2; i < 4; i += 2) {
      000657 F8 05            [12] 1474 	ldhl	sp,	#5
      000659 5E               [ 8] 1475 	ld	e, (hl)
      00065A 1D               [ 4] 1476 	dec	e
      00065B 1D               [ 4] 1477 	dec	e
      00065C CB 37            [ 8] 1478 	swap	a
      00065E E6 F0            [ 8] 1479 	and	a, #0xf0
      000660 C6 50            [ 8] 1480 	add	a, #0x50
      000662 57               [ 4] 1481 	ld	d, a
      000663 F8 00            [12] 1482 	ldhl	sp,	#0
      000665 7A               [ 4] 1483 	ld	a, d
      000666 22               [ 8] 1484 	ld	(hl+), a
      000667 79               [ 4] 1485 	ld	a, c
      000668 CB 37            [ 8] 1486 	swap	a
      00066A E6 F0            [ 8] 1487 	and	a, #0xf0
      00066C 4F               [ 4] 1488 	ld	c, a
      00066D C6 18            [ 8] 1489 	add	a, #0x18
      00066F 22               [ 8] 1490 	ld	(hl+), a
      000670 79               [ 4] 1491 	ld	a, c
      000671 C6 20            [ 8] 1492 	add	a, #0x20
      000673 77               [ 8] 1493 	ld	(hl), a
      000674                       1494 00108$:
      000674 7B               [ 4] 1495 	ld	a, e
      000675 D6 04            [ 8] 1496 	sub	a, #0x04
      000677 30 4D            [12] 1497 	jr	NC, 00109$
                                   1498 ;main.c:151: set_sprite_tile(12 + i, 16);
      000679 7B               [ 4] 1499 	ld	a, e
      00067A C6 0C            [ 8] 1500 	add	a, #0x0c
      00067C 4F               [ 4] 1501 	ld	c, a
                                   1502 ;c:\gbdk\include\gb\gb.h:1804: shadow_OAM[nb].tile=tile;
      00067D 69               [ 4] 1503 	ld	l, c
                                   1504 ;	spillPairReg hl
                                   1505 ;	spillPairReg hl
      00067E 26 00            [ 8] 1506 	ld	h, #0x00
                                   1507 ;	spillPairReg hl
                                   1508 ;	spillPairReg hl
      000680 29               [ 8] 1509 	add	hl, hl
      000681 29               [ 8] 1510 	add	hl, hl
      000682 D5               [16] 1511 	push	de
      000683 11r00r00         [12] 1512 	ld	de, #_shadow_OAM
      000686 19               [ 8] 1513 	add	hl, de
      000687 23               [ 8] 1514 	inc	hl
      000688 23               [ 8] 1515 	inc	hl
      000689 D1               [12] 1516 	pop	de
      00068A 36 10            [12] 1517 	ld	(hl), #0x10
                                   1518 ;main.c:152: move_sprite(12 + i, 8 + grid + (x * 16), 16 + (grid * 4) + y * 16);
                                   1519 ;c:\gbdk\include\gb\gb.h:1877: OAM_item_t * itm = &shadow_OAM[nb];
      00068C 26 00            [ 8] 1520 	ld	h, #0x00
                                   1521 ;	spillPairReg hl
                                   1522 ;	spillPairReg hl
      00068E 69               [ 4] 1523 	ld	l, c
      00068F 29               [ 8] 1524 	add	hl, hl
      000690 29               [ 8] 1525 	add	hl, hl
      000691 01r00r00         [12] 1526 	ld	bc, #_shadow_OAM
      000694 09               [ 8] 1527 	add	hl, bc
      000695 4D               [ 4] 1528 	ld	c, l
      000696 44               [ 4] 1529 	ld	b, h
                                   1530 ;c:\gbdk\include\gb\gb.h:1878: itm->y=y, itm->x=x;
      000697 F8 00            [12] 1531 	ldhl	sp,	#0
      000699 2A               [ 8] 1532 	ld	a, (hl+)
      00069A 02               [ 8] 1533 	ld	(bc), a
      00069B 03               [ 8] 1534 	inc	bc
      00069C 7E               [ 8] 1535 	ld	a, (hl)
      00069D 02               [ 8] 1536 	ld	(bc), a
                                   1537 ;main.c:153: set_sprite_tile(13 + i, 18);
      00069E 7B               [ 4] 1538 	ld	a, e
      00069F C6 0D            [ 8] 1539 	add	a, #0x0d
      0006A1 4F               [ 4] 1540 	ld	c, a
                                   1541 ;c:\gbdk\include\gb\gb.h:1804: shadow_OAM[nb].tile=tile;
      0006A2 69               [ 4] 1542 	ld	l, c
                                   1543 ;	spillPairReg hl
                                   1544 ;	spillPairReg hl
      0006A3 26 00            [ 8] 1545 	ld	h, #0x00
                                   1546 ;	spillPairReg hl
                                   1547 ;	spillPairReg hl
      0006A5 29               [ 8] 1548 	add	hl, hl
      0006A6 29               [ 8] 1549 	add	hl, hl
      0006A7 D5               [16] 1550 	push	de
      0006A8 11r00r00         [12] 1551 	ld	de, #_shadow_OAM
      0006AB 19               [ 8] 1552 	add	hl, de
      0006AC 23               [ 8] 1553 	inc	hl
      0006AD 23               [ 8] 1554 	inc	hl
      0006AE D1               [12] 1555 	pop	de
      0006AF 36 12            [12] 1556 	ld	(hl), #0x12
                                   1557 ;main.c:154: move_sprite(13 + i, 8 + grid + (x * 16) + 8, 16 + (grid * 4) + y * 16);
                                   1558 ;c:\gbdk\include\gb\gb.h:1877: OAM_item_t * itm = &shadow_OAM[nb];
      0006B1 69               [ 4] 1559 	ld	l, c
                                   1560 ;	spillPairReg hl
                                   1561 ;	spillPairReg hl
      0006B2 26 00            [ 8] 1562 	ld	h, #0x00
                                   1563 ;	spillPairReg hl
                                   1564 ;	spillPairReg hl
      0006B4 29               [ 8] 1565 	add	hl, hl
      0006B5 29               [ 8] 1566 	add	hl, hl
      0006B6 01r00r00         [12] 1567 	ld	bc, #_shadow_OAM
      0006B9 09               [ 8] 1568 	add	hl, bc
                                   1569 ;c:\gbdk\include\gb\gb.h:1878: itm->y=y, itm->x=x;
      0006BA 7A               [ 4] 1570 	ld	a, d
      0006BB 22               [ 8] 1571 	ld	(hl+), a
      0006BC 4D               [ 4] 1572 	ld	c, l
      0006BD 44               [ 4] 1573 	ld	b, h
      0006BE F8 02            [12] 1574 	ldhl	sp,	#2
      0006C0 7E               [ 8] 1575 	ld	a, (hl)
      0006C1 02               [ 8] 1576 	ld	(bc), a
                                   1577 ;main.c:150: for (UINT8 i = cnt - 2; i < 4; i += 2) {
      0006C2 1C               [ 4] 1578 	inc	e
      0006C3 1C               [ 4] 1579 	inc	e
      0006C4 18 AE            [12] 1580 	jr	00108$
      0006C6                       1581 00109$:
                                   1582 ;main.c:157: }
      0006C6 E8 03            [16] 1583 	add	sp, #3
      0006C8 E1               [12] 1584 	pop	hl
      0006C9 33               [ 8] 1585 	inc	sp
      0006CA E9               [ 4] 1586 	jp	(hl)
                                   1587 ;main.c:159: void _bonusDraw(INT8 x, INT8 y, INT8 cnt, INT8 water) {
                                   1588 ;	---------------------------------
                                   1589 ; Function _bonusDraw
                                   1590 ; ---------------------------------
      0006CB                       1591 __bonusDraw::
      0006CB E8 F8            [16] 1592 	add	sp, #-8
      0006CD 4F               [ 4] 1593 	ld	c, a
                                   1594 ;main.c:161: for (UINT8 i = cnt - 1; i < 3; i++) {
      0006CE F8 0A            [12] 1595 	ldhl	sp,	#10
      0006D0 7E               [ 8] 1596 	ld	a, (hl)
      0006D1 3D               [ 4] 1597 	dec	a
      0006D2 F8 07            [12] 1598 	ldhl	sp,	#7
      0006D4 77               [ 8] 1599 	ld	(hl), a
      0006D5 7B               [ 4] 1600 	ld	a, e
      0006D6 CB 37            [ 8] 1601 	swap	a
      0006D8 E6 F0            [ 8] 1602 	and	a, #0xf0
      0006DA C6 50            [ 8] 1603 	add	a, #0x50
      0006DC F8 00            [12] 1604 	ldhl	sp,	#0
      0006DE 22               [ 8] 1605 	ld	(hl+), a
      0006DF 79               [ 4] 1606 	ld	a, c
      0006E0 CB 37            [ 8] 1607 	swap	a
      0006E2 E6 F0            [ 8] 1608 	and	a, #0xf0
      0006E4 C6 1C            [ 8] 1609 	add	a, #0x1c
      0006E6 77               [ 8] 1610 	ld	(hl), a
      0006E7                       1611 00110$:
      0006E7 F8 07            [12] 1612 	ldhl	sp,	#7
      0006E9 7E               [ 8] 1613 	ld	a, (hl)
      0006EA D6 03            [ 8] 1614 	sub	a, #0x03
      0006EC D2r8Br07         [16] 1615 	jp	NC, 00111$
                                   1616 ;main.c:163: if (water != 0) { set_sprite_tile(16 + i + water, 28); }
      0006EF 3A               [ 8] 1617 	ld	a, (hl-)
      0006F0 77               [ 8] 1618 	ld	(hl), a
      0006F1 7E               [ 8] 1619 	ld	a, (hl)
      0006F2 C6 10            [ 8] 1620 	add	a, #0x10
      0006F4 77               [ 8] 1621 	ld	(hl), a
      0006F5 7E               [ 8] 1622 	ld	a, (hl)
      0006F6 F8 0B            [12] 1623 	ldhl	sp,	#11
      0006F8 86               [ 8] 1624 	add	a, (hl)
      0006F9 F8 06            [12] 1625 	ldhl	sp,	#6
      0006FB 77               [ 8] 1626 	ld	(hl), a
      0006FC F8 0B            [12] 1627 	ldhl	sp,	#11
      0006FE 7E               [ 8] 1628 	ld	a, (hl)
      0006FF B7               [ 4] 1629 	or	a, a
      000700 28 12            [12] 1630 	jr	Z, 00102$
      000702 F8 06            [12] 1631 	ldhl	sp,	#6
      000704 4E               [ 8] 1632 	ld	c, (hl)
                                   1633 ;c:\gbdk\include\gb\gb.h:1804: shadow_OAM[nb].tile=tile;
      000705 26 00            [ 8] 1634 	ld	h, #0x00
                                   1635 ;	spillPairReg hl
                                   1636 ;	spillPairReg hl
      000707 69               [ 4] 1637 	ld	l, c
      000708 29               [ 8] 1638 	add	hl, hl
      000709 29               [ 8] 1639 	add	hl, hl
      00070A 11r00r00         [12] 1640 	ld	de, #_shadow_OAM
      00070D 19               [ 8] 1641 	add	hl, de
      00070E 23               [ 8] 1642 	inc	hl
      00070F 23               [ 8] 1643 	inc	hl
      000710 36 1C            [12] 1644 	ld	(hl), #0x1c
                                   1645 ;main.c:163: if (water != 0) { set_sprite_tile(16 + i + water, 28); }
      000712 18 44            [12] 1646 	jr	00103$
      000714                       1647 00102$:
                                   1648 ;main.c:164: else { set_sprite_tile(16 + i + water, 20 + _bonus.frame); }
      000714 FAr45r05         [16] 1649 	ld	a, (#__bonus + 0)
      000717 C6 14            [ 8] 1650 	add	a, #0x14
      000719 F8 02            [12] 1651 	ldhl	sp,	#2
      00071B 77               [ 8] 1652 	ld	(hl), a
                                   1653 ;c:\gbdk\include\gb\gb.h:1804: shadow_OAM[nb].tile=tile;
      00071C F8 06            [12] 1654 	ldhl	sp,	#6
      00071E 3A               [ 8] 1655 	ld	a, (hl-)
      00071F 22               [ 8] 1656 	ld	(hl+), a
      000720 36 00            [12] 1657 	ld	(hl), #0x00
      000722 3E 02            [ 8] 1658 	ld	a, #0x02
      000724                       1659 00135$:
      000724 F8 05            [12] 1660 	ldhl	sp,	#5
      000726 CB 26            [16] 1661 	sla	(hl)
      000728 23               [ 8] 1662 	inc	hl
      000729 CB 16            [16] 1663 	rl	(hl)
      00072B 3D               [ 4] 1664 	dec	a
      00072C 20 F6            [12] 1665 	jr	NZ, 00135$
      00072E 2B               [ 8] 1666 	dec	hl
      00072F 2A               [ 8] 1667 	ld	a, (hl+)
      000730 5F               [ 4] 1668 	ld	e, a
      000731 56               [ 8] 1669 	ld	d, (hl)
      000732 21r00r00         [12] 1670 	ld	hl, #_shadow_OAM
      000735 19               [ 8] 1671 	add	hl, de
      000736 E5               [16] 1672 	push	hl
      000737 7D               [ 4] 1673 	ld	a, l
      000738 F8 05            [12] 1674 	ldhl	sp,	#5
      00073A 77               [ 8] 1675 	ld	(hl), a
      00073B E1               [12] 1676 	pop	hl
      00073C 7C               [ 4] 1677 	ld	a, h
      00073D F8 04            [12] 1678 	ldhl	sp,	#4
      00073F 32               [ 8] 1679 	ld	(hl-), a
      000740 2A               [ 8] 1680 	ld	a, (hl+)
      000741 5F               [ 4] 1681 	ld	e, a
      000742 56               [ 8] 1682 	ld	d, (hl)
      000743 21 02 00         [12] 1683 	ld	hl, #0x0002
      000746 19               [ 8] 1684 	add	hl, de
      000747 E5               [16] 1685 	push	hl
      000748 7D               [ 4] 1686 	ld	a, l
      000749 F8 07            [12] 1687 	ldhl	sp,	#7
      00074B 77               [ 8] 1688 	ld	(hl), a
      00074C E1               [12] 1689 	pop	hl
      00074D 7C               [ 4] 1690 	ld	a, h
      00074E F8 06            [12] 1691 	ldhl	sp,	#6
      000750 32               [ 8] 1692 	ld	(hl-), a
      000751 2A               [ 8] 1693 	ld	a, (hl+)
      000752 5F               [ 4] 1694 	ld	e, a
      000753 56               [ 8] 1695 	ld	d, (hl)
      000754 F8 02            [12] 1696 	ldhl	sp,	#2
      000756 7E               [ 8] 1697 	ld	a, (hl)
      000757 12               [ 8] 1698 	ld	(de), a
                                   1699 ;main.c:164: else { set_sprite_tile(16 + i + water, 20 + _bonus.frame); }
      000758                       1700 00103$:
                                   1701 ;main.c:166: move_sprite(16 + i + water, 12 + grid + (x * 16), 16 + (grid * 4) + y * 16);
      000758 F8 07            [12] 1702 	ldhl	sp,	#7
      00075A 3A               [ 8] 1703 	ld	a, (hl-)
      00075B C6 10            [ 8] 1704 	add	a, #0x10
      00075D 77               [ 8] 1705 	ld	(hl), a
      00075E 7E               [ 8] 1706 	ld	a, (hl)
      00075F F8 0B            [12] 1707 	ldhl	sp,	#11
      000761 86               [ 8] 1708 	add	a, (hl)
      000762 F8 06            [12] 1709 	ldhl	sp,	#6
      000764 77               [ 8] 1710 	ld	(hl), a
                                   1711 ;c:\gbdk\include\gb\gb.h:1877: OAM_item_t * itm = &shadow_OAM[nb];
      000765 01r00r00         [12] 1712 	ld	bc, #_shadow_OAM+0
      000768 3A               [ 8] 1713 	ld	a, (hl-)
      000769 5F               [ 4] 1714 	ld	e, a
      00076A 16 00            [ 8] 1715 	ld	d, #0x00
      00076C CB 23            [ 8] 1716 	sla	e
      00076E CB 12            [ 8] 1717 	rl	d
      000770 CB 23            [ 8] 1718 	sla	e
      000772 CB 12            [ 8] 1719 	rl	d
      000774 7B               [ 4] 1720 	ld	a, e
      000775 22               [ 8] 1721 	ld	(hl+), a
      000776 7A               [ 4] 1722 	ld	a, d
      000777 32               [ 8] 1723 	ld	(hl-), a
      000778 2A               [ 8] 1724 	ld	a,	(hl+)
      000779 66               [ 8] 1725 	ld	h, (hl)
      00077A 6F               [ 4] 1726 	ld	l, a
      00077B 09               [ 8] 1727 	add	hl, bc
      00077C 4D               [ 4] 1728 	ld	c, l
      00077D 44               [ 4] 1729 	ld	b, h
                                   1730 ;c:\gbdk\include\gb\gb.h:1878: itm->y=y, itm->x=x;
      00077E F8 00            [12] 1731 	ldhl	sp,	#0
      000780 2A               [ 8] 1732 	ld	a, (hl+)
      000781 02               [ 8] 1733 	ld	(bc), a
      000782 03               [ 8] 1734 	inc	bc
      000783 7E               [ 8] 1735 	ld	a, (hl)
      000784 02               [ 8] 1736 	ld	(bc), a
                                   1737 ;main.c:161: for (UINT8 i = cnt - 1; i < 3; i++) {
      000785 F8 07            [12] 1738 	ldhl	sp,	#7
      000787 34               [12] 1739 	inc	(hl)
      000788 C3rE7r06         [16] 1740 	jp	00110$
      00078B                       1741 00111$:
                                   1742 ;main.c:169: }
      00078B E8 08            [16] 1743 	add	sp, #8
      00078D E1               [12] 1744 	pop	hl
      00078E F1               [12] 1745 	pop	af
      00078F E9               [ 4] 1746 	jp	(hl)
                                   1747 ;main.c:171: void _control(void) {
                                   1748 ;	---------------------------------
                                   1749 ; Function _control
                                   1750 ; ---------------------------------
      000790                       1751 __control::
                                   1752 ;main.c:173: switch (joypad()) {
      000790 CDr00r00         [24] 1753 	call	_joypad
      000793 FE 01            [ 8] 1754 	cp	a, #0x01
      000795 28 15            [12] 1755 	jr	Z, 00102$
      000797 FE 02            [ 8] 1756 	cp	a, #0x02
      000799 28 09            [12] 1757 	jr	Z, 00101$
      00079B FE 04            [ 8] 1758 	cp	a, #0x04
      00079D 28 1D            [12] 1759 	jr	Z, 00104$
      00079F D6 08            [ 8] 1760 	sub	a, #0x08
      0007A1 28 11            [12] 1761 	jr	Z, 00103$
      0007A3 C9               [16] 1762 	ret
                                   1763 ;main.c:175: case J_LEFT: _movement(3); waitpadup(); break;
      0007A4                       1764 00101$:
      0007A4 3E 03            [ 8] 1765 	ld	a, #0x03
      0007A6 CDr66r00         [24] 1766 	call	__movement
      0007A9 C3r00r00         [16] 1767 	jp	_waitpadup
                                   1768 ;main.c:176: case J_RIGHT: _movement(1); waitpadup(); break;
      0007AC                       1769 00102$:
      0007AC 3E 01            [ 8] 1770 	ld	a, #0x01
      0007AE CDr66r00         [24] 1771 	call	__movement
      0007B1 C3r00r00         [16] 1772 	jp	_waitpadup
                                   1773 ;main.c:177: case J_DOWN: _movement(2); waitpadup(); break;
      0007B4                       1774 00103$:
      0007B4 3E 02            [ 8] 1775 	ld	a, #0x02
      0007B6 CDr66r00         [24] 1776 	call	__movement
      0007B9 C3r00r00         [16] 1777 	jp	_waitpadup
                                   1778 ;main.c:178: case J_UP: _movement(4); waitpadup(); break;
      0007BC                       1779 00104$:
      0007BC 3E 04            [ 8] 1780 	ld	a, #0x04
      0007BE CDr66r00         [24] 1781 	call	__movement
                                   1782 ;main.c:180: }
                                   1783 ;main.c:181: }
      0007C1 C3r00r00         [16] 1784 	jp	_waitpadup
                                   1785 ;main.c:183: void _smoothMove(void) {
                                   1786 ;	---------------------------------
                                   1787 ; Function _smoothMove
                                   1788 ; ---------------------------------
      0007C4                       1789 __smoothMove::
      0007C4 E8 FD            [16] 1790 	add	sp, #-3
                                   1791 ;main.c:185: if (_player.sprX < _player.x * grid) {
      0007C6 FAr3Er05         [16] 1792 	ld	a, (#(__player + 2) + 0)
      0007C9 F8 00            [12] 1793 	ldhl	sp,	#0
      0007CB 77               [ 8] 1794 	ld	(hl), a
      0007CC FAr3Cr05         [16] 1795 	ld	a, (#__player + 0)
      0007CF 6F               [ 4] 1796 	ld	l, a
                                   1797 ;	spillPairReg hl
                                   1798 ;	spillPairReg hl
      0007D0 07               [ 4] 1799 	rlca
      0007D1 9F               [ 4] 1800 	sbc	a, a
      0007D2 67               [ 4] 1801 	ld	h, a
                                   1802 ;	spillPairReg hl
                                   1803 ;	spillPairReg hl
      0007D3 29               [ 8] 1804 	add	hl, hl
      0007D4 29               [ 8] 1805 	add	hl, hl
      0007D5 29               [ 8] 1806 	add	hl, hl
      0007D6 29               [ 8] 1807 	add	hl, hl
      0007D7 4D               [ 4] 1808 	ld	c, l
      0007D8 44               [ 4] 1809 	ld	b, h
      0007D9 F8 00            [12] 1810 	ldhl	sp,	#0
      0007DB 2A               [ 8] 1811 	ld	a, (hl+)
      0007DC 22               [ 8] 1812 	ld	(hl+), a
      0007DD 07               [ 4] 1813 	rlca
      0007DE 9F               [ 4] 1814 	sbc	a, a
      0007DF 32               [ 8] 1815 	ld	(hl-), a
      0007E0 2A               [ 8] 1816 	ld	a, (hl+)
      0007E1 91               [ 4] 1817 	sub	a, c
      0007E2 7E               [ 8] 1818 	ld	a, (hl)
      0007E3 98               [ 4] 1819 	sbc	a, b
      0007E4 56               [ 8] 1820 	ld	d, (hl)
      0007E5 78               [ 4] 1821 	ld	a, b
      0007E6 CB 7F            [ 8] 1822 	bit	7,a
      0007E8 28 07            [12] 1823 	jr	Z, 00139$
      0007EA CB 7A            [ 8] 1824 	bit	7, d
      0007EC 20 08            [12] 1825 	jr	NZ, 00140$
      0007EE BF               [ 4] 1826 	cp	a, a
      0007EF 18 05            [12] 1827 	jr	00140$
      0007F1                       1828 00139$:
      0007F1 CB 7A            [ 8] 1829 	bit	7, d
      0007F3 28 01            [12] 1830 	jr	Z, 00140$
      0007F5 37               [ 4] 1831 	scf
      0007F6                       1832 00140$:
      0007F6 30 08            [12] 1833 	jr	NC, 00102$
                                   1834 ;main.c:186: _player.sprX += speed;
      0007F8 F8 00            [12] 1835 	ldhl	sp,	#0
      0007FA 7E               [ 8] 1836 	ld	a, (hl)
      0007FB C6 08            [ 8] 1837 	add	a, #0x08
      0007FD EAr3Er05         [16] 1838 	ld	(#(__player + 2)),a
      000800                       1839 00102$:
                                   1840 ;main.c:185: if (_player.sprX < _player.x * grid) {
      000800 FAr3Er05         [16] 1841 	ld	a, (#(__player + 2) + 0)
      000803 F8 00            [12] 1842 	ldhl	sp,	#0
      000805 77               [ 8] 1843 	ld	(hl), a
                                   1844 ;main.c:189: if (_player.sprX > _player.x * grid) {
      000806 FAr3Cr05         [16] 1845 	ld	a, (#__player + 0)
      000809 6F               [ 4] 1846 	ld	l, a
                                   1847 ;	spillPairReg hl
                                   1848 ;	spillPairReg hl
      00080A 07               [ 4] 1849 	rlca
      00080B 9F               [ 4] 1850 	sbc	a, a
      00080C 67               [ 4] 1851 	ld	h, a
                                   1852 ;	spillPairReg hl
                                   1853 ;	spillPairReg hl
      00080D 29               [ 8] 1854 	add	hl, hl
      00080E 29               [ 8] 1855 	add	hl, hl
      00080F 29               [ 8] 1856 	add	hl, hl
      000810 29               [ 8] 1857 	add	hl, hl
      000811 4D               [ 4] 1858 	ld	c, l
      000812 44               [ 4] 1859 	ld	b, h
      000813 F8 00            [12] 1860 	ldhl	sp,	#0
      000815 2A               [ 8] 1861 	ld	a, (hl+)
      000816 22               [ 8] 1862 	ld	(hl+), a
      000817 07               [ 4] 1863 	rlca
      000818 9F               [ 4] 1864 	sbc	a, a
      000819 32               [ 8] 1865 	ld	(hl-), a
      00081A 79               [ 4] 1866 	ld	a, c
      00081B 96               [ 8] 1867 	sub	a, (hl)
      00081C 23               [ 8] 1868 	inc	hl
      00081D 78               [ 4] 1869 	ld	a, b
      00081E 9E               [ 8] 1870 	sbc	a, (hl)
      00081F 78               [ 4] 1871 	ld	a, b
      000820 57               [ 4] 1872 	ld	d, a
      000821 CB 7E            [12] 1873 	bit	7, (hl)
      000823 28 07            [12] 1874 	jr	Z, 00141$
      000825 CB 7A            [ 8] 1875 	bit	7, d
      000827 20 08            [12] 1876 	jr	NZ, 00142$
      000829 BF               [ 4] 1877 	cp	a, a
      00082A 18 05            [12] 1878 	jr	00142$
      00082C                       1879 00141$:
      00082C CB 7A            [ 8] 1880 	bit	7, d
      00082E 28 01            [12] 1881 	jr	Z, 00142$
      000830 37               [ 4] 1882 	scf
      000831                       1883 00142$:
      000831 30 08            [12] 1884 	jr	NC, 00104$
                                   1885 ;main.c:190: _player.sprX -= speed;
      000833 F8 00            [12] 1886 	ldhl	sp,	#0
      000835 7E               [ 8] 1887 	ld	a, (hl)
      000836 C6 F8            [ 8] 1888 	add	a, #0xf8
      000838 EAr3Er05         [16] 1889 	ld	(#(__player + 2)),a
      00083B                       1890 00104$:
                                   1891 ;main.c:193: if (_player.sprY < _player.y * grid) {
      00083B FAr3Fr05         [16] 1892 	ld	a, (#(__player + 3) + 0)
      00083E F8 00            [12] 1893 	ldhl	sp,	#0
      000840 77               [ 8] 1894 	ld	(hl), a
      000841 FAr3Dr05         [16] 1895 	ld	a, (#(__player + 1) + 0)
      000844 6F               [ 4] 1896 	ld	l, a
                                   1897 ;	spillPairReg hl
                                   1898 ;	spillPairReg hl
      000845 07               [ 4] 1899 	rlca
      000846 9F               [ 4] 1900 	sbc	a, a
      000847 67               [ 4] 1901 	ld	h, a
                                   1902 ;	spillPairReg hl
                                   1903 ;	spillPairReg hl
      000848 29               [ 8] 1904 	add	hl, hl
      000849 29               [ 8] 1905 	add	hl, hl
      00084A 29               [ 8] 1906 	add	hl, hl
      00084B 29               [ 8] 1907 	add	hl, hl
      00084C 4D               [ 4] 1908 	ld	c, l
      00084D 44               [ 4] 1909 	ld	b, h
      00084E F8 00            [12] 1910 	ldhl	sp,	#0
      000850 2A               [ 8] 1911 	ld	a, (hl+)
      000851 22               [ 8] 1912 	ld	(hl+), a
      000852 07               [ 4] 1913 	rlca
      000853 9F               [ 4] 1914 	sbc	a, a
      000854 32               [ 8] 1915 	ld	(hl-), a
      000855 2A               [ 8] 1916 	ld	a, (hl+)
      000856 91               [ 4] 1917 	sub	a, c
      000857 7E               [ 8] 1918 	ld	a, (hl)
      000858 98               [ 4] 1919 	sbc	a, b
      000859 56               [ 8] 1920 	ld	d, (hl)
      00085A 78               [ 4] 1921 	ld	a, b
      00085B CB 7F            [ 8] 1922 	bit	7,a
      00085D 28 07            [12] 1923 	jr	Z, 00143$
      00085F CB 7A            [ 8] 1924 	bit	7, d
      000861 20 08            [12] 1925 	jr	NZ, 00144$
      000863 BF               [ 4] 1926 	cp	a, a
      000864 18 05            [12] 1927 	jr	00144$
      000866                       1928 00143$:
      000866 CB 7A            [ 8] 1929 	bit	7, d
      000868 28 01            [12] 1930 	jr	Z, 00144$
      00086A 37               [ 4] 1931 	scf
      00086B                       1932 00144$:
      00086B 30 08            [12] 1933 	jr	NC, 00106$
                                   1934 ;main.c:194: _player.sprY += speed;
      00086D F8 00            [12] 1935 	ldhl	sp,	#0
      00086F 7E               [ 8] 1936 	ld	a, (hl)
      000870 C6 08            [ 8] 1937 	add	a, #0x08
      000872 EAr3Fr05         [16] 1938 	ld	(#(__player + 3)),a
      000875                       1939 00106$:
                                   1940 ;main.c:193: if (_player.sprY < _player.y * grid) {
      000875 FAr3Fr05         [16] 1941 	ld	a, (#(__player + 3) + 0)
      000878 F8 00            [12] 1942 	ldhl	sp,	#0
      00087A 77               [ 8] 1943 	ld	(hl), a
                                   1944 ;main.c:197: if (_player.sprY > _player.y * grid) {
      00087B FAr3Dr05         [16] 1945 	ld	a, (#(__player + 1) + 0)
      00087E 6F               [ 4] 1946 	ld	l, a
                                   1947 ;	spillPairReg hl
                                   1948 ;	spillPairReg hl
      00087F 07               [ 4] 1949 	rlca
      000880 9F               [ 4] 1950 	sbc	a, a
      000881 67               [ 4] 1951 	ld	h, a
                                   1952 ;	spillPairReg hl
                                   1953 ;	spillPairReg hl
      000882 29               [ 8] 1954 	add	hl, hl
      000883 29               [ 8] 1955 	add	hl, hl
      000884 29               [ 8] 1956 	add	hl, hl
      000885 29               [ 8] 1957 	add	hl, hl
      000886 4D               [ 4] 1958 	ld	c, l
      000887 44               [ 4] 1959 	ld	b, h
      000888 F8 00            [12] 1960 	ldhl	sp,	#0
      00088A 2A               [ 8] 1961 	ld	a, (hl+)
      00088B 22               [ 8] 1962 	ld	(hl+), a
      00088C 07               [ 4] 1963 	rlca
      00088D 9F               [ 4] 1964 	sbc	a, a
      00088E 32               [ 8] 1965 	ld	(hl-), a
      00088F 79               [ 4] 1966 	ld	a, c
      000890 96               [ 8] 1967 	sub	a, (hl)
      000891 23               [ 8] 1968 	inc	hl
      000892 78               [ 4] 1969 	ld	a, b
      000893 9E               [ 8] 1970 	sbc	a, (hl)
      000894 78               [ 4] 1971 	ld	a, b
      000895 57               [ 4] 1972 	ld	d, a
      000896 CB 7E            [12] 1973 	bit	7, (hl)
      000898 28 07            [12] 1974 	jr	Z, 00145$
      00089A CB 7A            [ 8] 1975 	bit	7, d
      00089C 20 08            [12] 1976 	jr	NZ, 00146$
      00089E BF               [ 4] 1977 	cp	a, a
      00089F 18 05            [12] 1978 	jr	00146$
      0008A1                       1979 00145$:
      0008A1 CB 7A            [ 8] 1980 	bit	7, d
      0008A3 28 01            [12] 1981 	jr	Z, 00146$
      0008A5 37               [ 4] 1982 	scf
      0008A6                       1983 00146$:
      0008A6 30 08            [12] 1984 	jr	NC, 00109$
                                   1985 ;main.c:198: _player.sprY -= speed;
      0008A8 F8 00            [12] 1986 	ldhl	sp,	#0
      0008AA 7E               [ 8] 1987 	ld	a, (hl)
      0008AB C6 F8            [ 8] 1988 	add	a, #0xf8
      0008AD EAr3Fr05         [16] 1989 	ld	(#(__player + 3)),a
      0008B0                       1990 00109$:
                                   1991 ;main.c:200: }
      0008B0 E8 03            [16] 1992 	add	sp, #3
      0008B2 C9               [16] 1993 	ret
                                   1994 ;main.c:202: void _spawn(UINT8 _block) {
                                   1995 ;	---------------------------------
                                   1996 ; Function _spawn
                                   1997 ; ---------------------------------
      0008B3                       1998 __spawn::
      0008B3 E8 FC            [16] 1999 	add	sp, #-4
      0008B5 F8 03            [12] 2000 	ldhl	sp,	#3
      0008B7 77               [ 8] 2001 	ld	(hl), a
                                   2002 ;main.c:204: UINT8 x = ((UINT8)rand()) % fieldX;
      0008B8 CDr00r00         [24] 2003 	call	_rand
      0008BB 7B               [ 4] 2004 	ld	a, e
      0008BC E6 07            [ 8] 2005 	and	a, #0x07
      0008BE F8 00            [12] 2006 	ldhl	sp,	#0
      0008C0 77               [ 8] 2007 	ld	(hl), a
                                   2008 ;main.c:205: UINT8 y = ((UINT8)rand()) % fieldY;
      0008C1 CDr00r00         [24] 2009 	call	_rand
      0008C4 7B               [ 4] 2010 	ld	a, e
      0008C5 E6 03            [ 8] 2011 	and	a, #0x03
      0008C7 F8 01            [12] 2012 	ldhl	sp,	#1
      0008C9 77               [ 8] 2013 	ld	(hl), a
                                   2014 ;main.c:206: UINT8 state = ((UINT8)rand()) % 3;
      0008CA CDr00r00         [24] 2015 	call	_rand
      0008CD 16 00            [ 8] 2016 	ld	d, #0x00
      0008CF 01 03 00         [12] 2017 	ld	bc, #0x0003
      0008D2 CDr00r00         [24] 2018 	call	__modsint
      0008D5 F8 02            [12] 2019 	ldhl	sp,	#2
                                   2020 ;main.c:208: if (_block != 2) state = 0;
      0008D7 79               [ 4] 2021 	ld	a, c
      0008D8 22               [ 8] 2022 	ld	(hl+), a
      0008D9 7E               [ 8] 2023 	ld	a, (hl)
      0008DA D6 02            [ 8] 2024 	sub	a, #0x02
      0008DC 28 04            [12] 2025 	jr	Z, 00102$
      0008DE F8 02            [12] 2026 	ldhl	sp,	#2
      0008E0 36 00            [12] 2027 	ld	(hl), #0x00
      0008E2                       2028 00102$:
                                   2029 ;main.c:210: if (field[x][y] == 0 && x != (UINT8)_player.x && y != (UINT8)_player.y) field[x][y] = _block + state;
      0008E2 01r00r00         [12] 2030 	ld	bc, #_field+0
      0008E5 F8 00            [12] 2031 	ldhl	sp,	#0
      0008E7 5E               [ 8] 2032 	ld	e, (hl)
      0008E8 16 00            [ 8] 2033 	ld	d, #0x00
      0008EA 6B               [ 4] 2034 	ld	l, e
      0008EB 62               [ 4] 2035 	ld	h, d
      0008EC 29               [ 8] 2036 	add	hl, hl
      0008ED 29               [ 8] 2037 	add	hl, hl
      0008EE 19               [ 8] 2038 	add	hl, de
      0008EF 29               [ 8] 2039 	add	hl, hl
      0008F0 09               [ 8] 2040 	add	hl, bc
      0008F1 4D               [ 4] 2041 	ld	c, l
      0008F2 44               [ 4] 2042 	ld	b, h
      0008F3 F8 01            [12] 2043 	ldhl	sp,	#1
      0008F5 7E               [ 8] 2044 	ld	a, (hl)
      0008F6 87               [ 4] 2045 	add	a, a
      0008F7 81               [ 4] 2046 	add	a, c
      0008F8 4F               [ 4] 2047 	ld	c, a
      0008F9 3E 00            [ 8] 2048 	ld	a, #0x00
      0008FB 88               [ 4] 2049 	adc	a, b
      0008FC 47               [ 4] 2050 	ld	b, a
      0008FD 69               [ 4] 2051 	ld	l, c
      0008FE 60               [ 4] 2052 	ld	h, b
      0008FF 23               [ 8] 2053 	inc	hl
      000900 3A               [ 8] 2054 	ld	a,	(hl-)
      000901 6E               [ 8] 2055 	ld	l, (hl)
                                   2056 ;	spillPairReg hl
      000902 B5               [ 4] 2057 	or	a, l
      000903 20 2B            [12] 2058 	jr	NZ, 00104$
      000905 FAr3Cr05         [16] 2059 	ld	a, (#__player + 0)
      000908 5F               [ 4] 2060 	ld	e, a
      000909 F8 00            [12] 2061 	ldhl	sp,	#0
      00090B 7E               [ 8] 2062 	ld	a, (hl)
      00090C 93               [ 4] 2063 	sub	a, e
      00090D 28 21            [12] 2064 	jr	Z, 00104$
      00090F FAr3Dr05         [16] 2065 	ld	a, (#(__player + 1) + 0)
      000912 5F               [ 4] 2066 	ld	e, a
      000913 F8 01            [12] 2067 	ldhl	sp,	#1
      000915 7E               [ 8] 2068 	ld	a, (hl)
      000916 93               [ 4] 2069 	sub	a, e
      000917 28 17            [12] 2070 	jr	Z, 00104$
      000919 F8 03            [12] 2071 	ldhl	sp,	#3
      00091B 3A               [ 8] 2072 	ld	a, (hl-)
      00091C 5F               [ 4] 2073 	ld	e, a
      00091D 16 00            [ 8] 2074 	ld	d, #0x00
      00091F 3A               [ 8] 2075 	ld	a, (hl-)
      000920 22               [ 8] 2076 	ld	(hl+), a
      000921 AF               [ 4] 2077 	xor	a, a
      000922 32               [ 8] 2078 	ld	(hl-), a
      000923 2A               [ 8] 2079 	ld	a,	(hl+)
      000924 66               [ 8] 2080 	ld	h, (hl)
      000925 6F               [ 4] 2081 	ld	l, a
      000926 19               [ 8] 2082 	add	hl, de
      000927 5D               [ 4] 2083 	ld	e, l
      000928 54               [ 4] 2084 	ld	d, h
      000929 7B               [ 4] 2085 	ld	a, e
      00092A 02               [ 8] 2086 	ld	(bc), a
      00092B 03               [ 8] 2087 	inc	bc
      00092C 7A               [ 4] 2088 	ld	a, d
      00092D 02               [ 8] 2089 	ld	(bc), a
      00092E 18 06            [12] 2090 	jr	00108$
      000930                       2091 00104$:
                                   2092 ;main.c:211: else _spawn(_block);
      000930 F8 03            [12] 2093 	ldhl	sp,	#3
      000932 7E               [ 8] 2094 	ld	a, (hl)
      000933 CDrB3r08         [24] 2095 	call	__spawn
      000936                       2096 00108$:
                                   2097 ;main.c:212: }
      000936 E8 04            [16] 2098 	add	sp, #4
      000938 C9               [16] 2099 	ret
                                   2100 ;main.c:214: void _draw(void) {
                                   2101 ;	---------------------------------
                                   2102 ; Function _draw
                                   2103 ; ---------------------------------
      000939                       2104 __draw::
      000939 E8 F4            [16] 2105 	add	sp, #-12
                                   2106 ;main.c:216: UINT8 _cntBrick = 0;
      00093B F8 00            [12] 2107 	ldhl	sp,	#0
                                   2108 ;main.c:217: UINT8 _cntStone = 0;
      00093D AF               [ 4] 2109 	xor	a, a
      00093E 22               [ 8] 2110 	ld	(hl+), a
                                   2111 ;main.c:218: UINT8 _cntCoin = 0;
      00093F AF               [ 4] 2112 	xor	a, a
      000940 22               [ 8] 2113 	ld	(hl+), a
                                   2114 ;main.c:219: UINT8 _cntWater = 0;
      000941 AF               [ 4] 2115 	xor	a, a
      000942 22               [ 8] 2116 	ld	(hl+), a
      000943 77               [ 8] 2117 	ld	(hl), a
                                   2118 ;main.c:221: for (INT8 i = 0; i < fieldY; i++) {
      000944 F8 09            [12] 2119 	ldhl	sp,	#9
      000946 36 00            [12] 2120 	ld	(hl), #0x00
      000948                       2121 00119$:
      000948 F8 09            [12] 2122 	ldhl	sp,	#9
      00094A 7E               [ 8] 2123 	ld	a, (hl)
      00094B EE 80            [ 8] 2124 	xor	a, #0x80
      00094D D6 84            [ 8] 2125 	sub	a, #0x84
      00094F D2r37r0A         [16] 2126 	jp	NC, 00121$
                                   2127 ;main.c:222: for (INT8 j = 0; j < fieldX; j++) {
      000952 7E               [ 8] 2128 	ld	a, (hl)
      000953 87               [ 4] 2129 	add	a, a
      000954 F8 04            [12] 2130 	ldhl	sp,	#4
      000956 77               [ 8] 2131 	ld	(hl), a
      000957 F8 0A            [12] 2132 	ldhl	sp,	#10
      000959 36 00            [12] 2133 	ld	(hl), #0x00
      00095B                       2134 00116$:
      00095B F8 0A            [12] 2135 	ldhl	sp,	#10
      00095D 7E               [ 8] 2136 	ld	a, (hl)
      00095E EE 80            [ 8] 2137 	xor	a, #0x80
      000960 D6 88            [ 8] 2138 	sub	a, #0x88
      000962 D2r31r0A         [16] 2139 	jp	NC, 00120$
                                   2140 ;main.c:224: if (field[j][i] == 6) { _cntWater += 1; _bonusDraw(j, i, _cntWater, 3); }
      000965 4E               [ 8] 2141 	ld	c, (hl)
      000966 79               [ 4] 2142 	ld	a, c
      000967 07               [ 4] 2143 	rlca
      000968 9F               [ 4] 2144 	sbc	a, a
      000969 47               [ 4] 2145 	ld	b, a
      00096A 69               [ 4] 2146 	ld	l, c
      00096B 60               [ 4] 2147 	ld	h, b
      00096C 29               [ 8] 2148 	add	hl, hl
      00096D 29               [ 8] 2149 	add	hl, hl
      00096E 09               [ 8] 2150 	add	hl, bc
      00096F 29               [ 8] 2151 	add	hl, hl
      000970 01r00r00         [12] 2152 	ld	bc,#_field
      000973 09               [ 8] 2153 	add	hl,bc
      000974 4D               [ 4] 2154 	ld	c, l
      000975 44               [ 4] 2155 	ld	b, h
      000976 F8 04            [12] 2156 	ldhl	sp,	#4
      000978 6E               [ 8] 2157 	ld	l, (hl)
      000979 26 00            [ 8] 2158 	ld	h, #0x00
      00097B 09               [ 8] 2159 	add	hl, bc
      00097C E5               [16] 2160 	push	hl
      00097D 7D               [ 4] 2161 	ld	a, l
      00097E F8 07            [12] 2162 	ldhl	sp,	#7
      000980 77               [ 8] 2163 	ld	(hl), a
      000981 E1               [12] 2164 	pop	hl
      000982 7C               [ 4] 2165 	ld	a, h
      000983 F8 06            [12] 2166 	ldhl	sp,	#6
      000985 32               [ 8] 2167 	ld	(hl-), a
      000986 2A               [ 8] 2168 	ld	a, (hl+)
      000987 5F               [ 4] 2169 	ld	e, a
      000988 56               [ 8] 2170 	ld	d, (hl)
      000989 1A               [ 8] 2171 	ld	a, (de)
      00098A 4F               [ 4] 2172 	ld	c, a
      00098B 13               [ 8] 2173 	inc	de
      00098C 1A               [ 8] 2174 	ld	a, (de)
      00098D 47               [ 4] 2175 	ld	b, a
      00098E 79               [ 4] 2176 	ld	a, c
      00098F D6 06            [ 8] 2177 	sub	a, #0x06
      000991 B0               [ 4] 2178 	or	a, b
      000992 20 12            [12] 2179 	jr	NZ, 00102$
      000994 F8 03            [12] 2180 	ldhl	sp,	#3
      000996 34               [12] 2181 	inc	(hl)
      000997 3E 03            [ 8] 2182 	ld	a, #0x03
      000999 F5               [16] 2183 	push	af
      00099A 33               [ 8] 2184 	inc	sp
      00099B 7E               [ 8] 2185 	ld	a, (hl)
      00099C F5               [16] 2186 	push	af
      00099D 33               [ 8] 2187 	inc	sp
      00099E F8 0B            [12] 2188 	ldhl	sp,	#11
      0009A0 2A               [ 8] 2189 	ld	a, (hl+)
      0009A1 5F               [ 4] 2190 	ld	e, a
      0009A2 7E               [ 8] 2191 	ld	a, (hl)
      0009A3 CDrCBr06         [24] 2192 	call	__bonusDraw
      0009A6                       2193 00102$:
                                   2194 ;main.c:225: if (field[j][i] == 5) { _cntCoin += 1; _bonusDraw(j, i, _cntCoin, 0); }
      0009A6 F8 05            [12] 2195 	ldhl	sp,#5
      0009A8 2A               [ 8] 2196 	ld	a, (hl+)
      0009A9 5F               [ 4] 2197 	ld	e, a
      0009AA 56               [ 8] 2198 	ld	d, (hl)
      0009AB 1A               [ 8] 2199 	ld	a, (de)
      0009AC 4F               [ 4] 2200 	ld	c, a
      0009AD 13               [ 8] 2201 	inc	de
      0009AE 1A               [ 8] 2202 	ld	a, (de)
      0009AF 47               [ 4] 2203 	ld	b, a
      0009B0 79               [ 4] 2204 	ld	a, c
      0009B1 D6 05            [ 8] 2205 	sub	a, #0x05
      0009B3 B0               [ 4] 2206 	or	a, b
      0009B4 20 11            [12] 2207 	jr	NZ, 00129$
      0009B6 F8 02            [12] 2208 	ldhl	sp,	#2
      0009B8 34               [12] 2209 	inc	(hl)
      0009B9 AF               [ 4] 2210 	xor	a, a
      0009BA F5               [16] 2211 	push	af
      0009BB 33               [ 8] 2212 	inc	sp
      0009BC 7E               [ 8] 2213 	ld	a, (hl)
      0009BD F5               [16] 2214 	push	af
      0009BE 33               [ 8] 2215 	inc	sp
      0009BF F8 0B            [12] 2216 	ldhl	sp,	#11
      0009C1 2A               [ 8] 2217 	ld	a, (hl+)
      0009C2 5F               [ 4] 2218 	ld	e, a
      0009C3 7E               [ 8] 2219 	ld	a, (hl)
      0009C4 CDrCBr06         [24] 2220 	call	__bonusDraw
                                   2221 ;main.c:226: for (UINT8 c = 2; c < 5; c++) { if (field[j][i] == c) { _cntBrick += 2; _brickDraw(j, i, c, _cntBrick); } }
      0009C7                       2222 00129$:
      0009C7 F8 05            [12] 2223 	ldhl	sp,	#5
      0009C9 2A               [ 8] 2224 	ld	a, (hl+)
      0009CA 4F               [ 4] 2225 	ld	c, a
      0009CB 46               [ 8] 2226 	ld	b, (hl)
      0009CC F8 0B            [12] 2227 	ldhl	sp,	#11
      0009CE 36 02            [12] 2228 	ld	(hl), #0x02
      0009D0                       2229 00113$:
      0009D0 F8 0B            [12] 2230 	ldhl	sp,	#11
      0009D2 7E               [ 8] 2231 	ld	a, (hl)
      0009D3 D6 05            [ 8] 2232 	sub	a, #0x05
      0009D5 30 35            [12] 2233 	jr	NC, 00107$
      0009D7 59               [ 4] 2234 	ld	e, c
      0009D8 50               [ 4] 2235 	ld	d, b
      0009D9 1A               [ 8] 2236 	ld	a, (de)
      0009DA F8 07            [12] 2237 	ldhl	sp,	#7
      0009DC 22               [ 8] 2238 	ld	(hl+), a
      0009DD 13               [ 8] 2239 	inc	de
      0009DE 1A               [ 8] 2240 	ld	a, (de)
      0009DF 77               [ 8] 2241 	ld	(hl), a
      0009E0 F8 0B            [12] 2242 	ldhl	sp,	#11
      0009E2 5E               [ 8] 2243 	ld	e, (hl)
      0009E3 16 00            [ 8] 2244 	ld	d, #0x00
      0009E5 F8 07            [12] 2245 	ldhl	sp,	#7
      0009E7 7E               [ 8] 2246 	ld	a, (hl)
      0009E8 93               [ 4] 2247 	sub	a, e
      0009E9 20 1C            [12] 2248 	jr	NZ, 00114$
      0009EB 23               [ 8] 2249 	inc	hl
      0009EC 7E               [ 8] 2250 	ld	a, (hl)
      0009ED 92               [ 4] 2251 	sub	a, d
      0009EE 20 17            [12] 2252 	jr	NZ, 00114$
      0009F0 F8 00            [12] 2253 	ldhl	sp,	#0
      0009F2 7E               [ 8] 2254 	ld	a, (hl)
      0009F3 C6 02            [ 8] 2255 	add	a, #0x02
      0009F5 77               [ 8] 2256 	ld	(hl), a
      0009F6 C5               [16] 2257 	push	bc
      0009F7 7E               [ 8] 2258 	ld	a, (hl)
      0009F8 F5               [16] 2259 	push	af
      0009F9 33               [ 8] 2260 	inc	sp
      0009FA F8 0E            [12] 2261 	ldhl	sp,	#14
      0009FC 3A               [ 8] 2262 	ld	a, (hl-)
      0009FD 2B               [ 8] 2263 	dec	hl
      0009FE F5               [16] 2264 	push	af
      0009FF 33               [ 8] 2265 	inc	sp
      000A00 2A               [ 8] 2266 	ld	a, (hl+)
      000A01 5F               [ 4] 2267 	ld	e, a
      000A02 7E               [ 8] 2268 	ld	a, (hl)
      000A03 CDr06r05         [24] 2269 	call	__brickDraw
      000A06 C1               [12] 2270 	pop	bc
      000A07                       2271 00114$:
      000A07 F8 0B            [12] 2272 	ldhl	sp,	#11
      000A09 34               [12] 2273 	inc	(hl)
      000A0A 18 C4            [12] 2274 	jr	00113$
      000A0C                       2275 00107$:
                                   2276 ;main.c:227: if (field[j][i] == 1) { _cntStone += 2; _stoneDraw(j, i, _cntStone); }
      000A0C F8 05            [12] 2277 	ldhl	sp,#5
      000A0E 2A               [ 8] 2278 	ld	a, (hl+)
      000A0F 5F               [ 4] 2279 	ld	e, a
      000A10 56               [ 8] 2280 	ld	d, (hl)
      000A11 1A               [ 8] 2281 	ld	a, (de)
      000A12 4F               [ 4] 2282 	ld	c, a
      000A13 13               [ 8] 2283 	inc	de
      000A14 1A               [ 8] 2284 	ld	a, (de)
      000A15 47               [ 4] 2285 	ld	b, a
      000A16 79               [ 4] 2286 	ld	a, c
      000A17 3D               [ 4] 2287 	dec	a
      000A18 B0               [ 4] 2288 	or	a, b
      000A19 20 10            [12] 2289 	jr	NZ, 00117$
      000A1B F8 01            [12] 2290 	ldhl	sp,	#1
      000A1D 7E               [ 8] 2291 	ld	a, (hl)
      000A1E C6 02            [ 8] 2292 	add	a, #0x02
      000A20 77               [ 8] 2293 	ld	(hl), a
      000A21 F5               [16] 2294 	push	af
      000A22 33               [ 8] 2295 	inc	sp
      000A23 F8 0A            [12] 2296 	ldhl	sp,	#10
      000A25 2A               [ 8] 2297 	ld	a, (hl+)
      000A26 5F               [ 4] 2298 	ld	e, a
      000A27 7E               [ 8] 2299 	ld	a, (hl)
      000A28 CDr53r06         [24] 2300 	call	__stoneDraw
      000A2B                       2301 00117$:
                                   2302 ;main.c:222: for (INT8 j = 0; j < fieldX; j++) {
      000A2B F8 0A            [12] 2303 	ldhl	sp,	#10
      000A2D 34               [12] 2304 	inc	(hl)
      000A2E C3r5Br09         [16] 2305 	jp	00116$
      000A31                       2306 00120$:
                                   2307 ;main.c:221: for (INT8 i = 0; i < fieldY; i++) {
      000A31 F8 09            [12] 2308 	ldhl	sp,	#9
      000A33 34               [12] 2309 	inc	(hl)
      000A34 C3r48r09         [16] 2310 	jp	00119$
      000A37                       2311 00121$:
                                   2312 ;main.c:231: }
      000A37 E8 0C            [16] 2313 	add	sp, #12
      000A39 C9               [16] 2314 	ret
                                   2315 ;main.c:233: UINT32 power(UINT8 num,UINT8 pow) {
                                   2316 ;	---------------------------------
                                   2317 ; Function power
                                   2318 ; ---------------------------------
      000A3A                       2319 _power::
      000A3A E8 FB            [16] 2320 	add	sp, #-5
      000A3C 4F               [ 4] 2321 	ld	c, a
      000A3D F8 04            [12] 2322 	ldhl	sp,	#4
      000A3F 73               [ 8] 2323 	ld	(hl), e
                                   2324 ;main.c:234: UINT32 result = 1;
      000A40 F8 00            [12] 2325 	ldhl	sp,	#0
      000A42 3E 01            [ 8] 2326 	ld	a, #0x01
      000A44 22               [ 8] 2327 	ld	(hl+), a
      000A45 AF               [ 4] 2328 	xor	a, a
      000A46 22               [ 8] 2329 	ld	(hl+), a
      000A47 22               [ 8] 2330 	ld	(hl+), a
      000A48 77               [ 8] 2331 	ld	(hl), a
                                   2332 ;main.c:235: for (UINT8 i = 0; i < pow; i++) {
      000A49 06 00            [ 8] 2333 	ld	b, #0x00
      000A4B                       2334 00103$:
      000A4B 78               [ 4] 2335 	ld	a, b
      000A4C F8 04            [12] 2336 	ldhl	sp,	#4
      000A4E 96               [ 8] 2337 	sub	a, (hl)
      000A4F 30 22            [12] 2338 	jr	NC, 00101$
                                   2339 ;main.c:236: result *= num;
      000A51 59               [ 4] 2340 	ld	e, c
      000A52 16 00            [ 8] 2341 	ld	d, #0x00
      000A54 21 00 00         [12] 2342 	ld	hl, #0x0000
      000A57 C5               [16] 2343 	push	bc
      000A58 E5               [16] 2344 	push	hl
      000A59 D5               [16] 2345 	push	de
      000A5A F8 06            [12] 2346 	ldhl	sp,	#6
      000A5C 2A               [ 8] 2347 	ld	a, (hl+)
      000A5D 4F               [ 4] 2348 	ld	c, a
      000A5E 2A               [ 8] 2349 	ld	a, (hl+)
      000A5F 47               [ 4] 2350 	ld	b, a
      000A60 2A               [ 8] 2351 	ld	a, (hl+)
      000A61 5F               [ 4] 2352 	ld	e, a
      000A62 56               [ 8] 2353 	ld	d, (hl)
                                   2354 ;main.c:235: for (UINT8 i = 0; i < pow; i++) {
      000A63 CDr00r00         [24] 2355 	call	__mullong
      000A66 F8 02            [12] 2356 	ldhl	sp,	#2
      000A68 79               [ 4] 2357 	ld	a, c
      000A69 22               [ 8] 2358 	ld	(hl+), a
      000A6A 78               [ 4] 2359 	ld	a, b
      000A6B 22               [ 8] 2360 	ld	(hl+), a
      000A6C 7B               [ 4] 2361 	ld	a, e
      000A6D 22               [ 8] 2362 	ld	(hl+), a
      000A6E 72               [ 8] 2363 	ld	(hl), d
      000A6F C1               [12] 2364 	pop	bc
      000A70 04               [ 4] 2365 	inc	b
      000A71 18 D8            [12] 2366 	jr	00103$
      000A73                       2367 00101$:
                                   2368 ;main.c:238: return result;
      000A73 C1               [12] 2369 	pop	bc
      000A74 C5               [16] 2370 	push	bc
      000A75 F8 02            [12] 2371 	ldhl	sp,	#2
      000A77 2A               [ 8] 2372 	ld	a, (hl+)
      000A78 5F               [ 4] 2373 	ld	e, a
      000A79 56               [ 8] 2374 	ld	d, (hl)
                                   2375 ;main.c:239: }
      000A7A E8 05            [16] 2376 	add	sp, #5
      000A7C C9               [16] 2377 	ret
                                   2378 ;main.c:241: void DrawUI(void) {
                                   2379 ;	---------------------------------
                                   2380 ; Function DrawUI
                                   2381 ; ---------------------------------
      000A7D                       2382 _DrawUI::
      000A7D E8 F6            [16] 2383 	add	sp, #-10
                                   2384 ;main.c:242: for (UINT8 i = 0; i < 4; i++) {
      000A7F F8 09            [12] 2385 	ldhl	sp,	#9
      000A81 36 00            [12] 2386 	ld	(hl), #0x00
      000A83                       2387 00103$:
      000A83 F8 09            [12] 2388 	ldhl	sp,	#9
      000A85 7E               [ 8] 2389 	ld	a, (hl)
      000A86 D6 04            [ 8] 2390 	sub	a, #0x04
      000A88 D2r67r0B         [16] 2391 	jp	NC, 00101$
                                   2392 ;main.c:243: UINT16 mod = ((_player.exp / power(10, i)) % 10) + 20;
      000A8B 21r41r05         [12] 2393 	ld	hl, #(__player + 5)
      000A8E 2A               [ 8] 2394 	ld	a, (hl+)
      000A8F 4F               [ 4] 2395 	ld	c, a
      000A90 46               [ 8] 2396 	ld	b, (hl)
      000A91 C5               [16] 2397 	push	bc
      000A92 F8 0B            [12] 2398 	ldhl	sp,	#11
      000A94 5E               [ 8] 2399 	ld	e, (hl)
      000A95 3E 0A            [ 8] 2400 	ld	a, #0x0a
      000A97 CDr3Ar0A         [24] 2401 	call	_power
      000A9A F8 02            [12] 2402 	ldhl	sp,	#2
      000A9C 79               [ 4] 2403 	ld	a, c
      000A9D 22               [ 8] 2404 	ld	(hl+), a
      000A9E 78               [ 4] 2405 	ld	a, b
      000A9F 22               [ 8] 2406 	ld	(hl+), a
      000AA0 7B               [ 4] 2407 	ld	a, e
      000AA1 22               [ 8] 2408 	ld	(hl+), a
      000AA2 72               [ 8] 2409 	ld	(hl), d
      000AA3 C1               [12] 2410 	pop	bc
      000AA4 78               [ 4] 2411 	ld	a, b
      000AA5 07               [ 4] 2412 	rlca
      000AA6 9F               [ 4] 2413 	sbc	a, a
      000AA7 5F               [ 4] 2414 	ld	e, a
      000AA8 57               [ 4] 2415 	ld	d, a
      000AA9 F8 02            [12] 2416 	ldhl	sp,	#2
      000AAB 2A               [ 8] 2417 	ld	a, (hl+)
      000AAC 66               [ 8] 2418 	ld	h, (hl)
                                   2419 ;	spillPairReg hl
                                   2420 ;	spillPairReg hl
      000AAD 6F               [ 4] 2421 	ld	l, a
                                   2422 ;	spillPairReg hl
                                   2423 ;	spillPairReg hl
      000AAE E5               [16] 2424 	push	hl
      000AAF F8 02            [12] 2425 	ldhl	sp,	#2
      000AB1 2A               [ 8] 2426 	ld	a, (hl+)
      000AB2 66               [ 8] 2427 	ld	h, (hl)
                                   2428 ;	spillPairReg hl
                                   2429 ;	spillPairReg hl
      000AB3 6F               [ 4] 2430 	ld	l, a
                                   2431 ;	spillPairReg hl
                                   2432 ;	spillPairReg hl
      000AB4 E5               [16] 2433 	push	hl
      000AB5 CDr00r00         [24] 2434 	call	__divulong
      000AB8 21 00 00         [12] 2435 	ld	hl, #0x0000
      000ABB E5               [16] 2436 	push	hl
      000ABC 2E 0A            [ 8] 2437 	ld	l, #0x0a
      000ABE E5               [16] 2438 	push	hl
      000ABF CDr00r00         [24] 2439 	call	__modulong
      000AC2 21 14 00         [12] 2440 	ld	hl, #0x0014
      000AC5 09               [ 8] 2441 	add	hl, bc
      000AC6 E5               [16] 2442 	push	hl
      000AC7 7D               [ 4] 2443 	ld	a, l
      000AC8 F8 06            [12] 2444 	ldhl	sp,	#6
      000ACA 77               [ 8] 2445 	ld	(hl), a
      000ACB E1               [12] 2446 	pop	hl
      000ACC 7C               [ 4] 2447 	ld	a, h
      000ACD F8 05            [12] 2448 	ldhl	sp,	#5
      000ACF 77               [ 8] 2449 	ld	(hl), a
                                   2450 ;main.c:244: set_bkg_tiles(9-i, 3, 1, 1, &mod);
      000AD0 F8 04            [12] 2451 	ldhl	sp,	#4
      000AD2 4D               [ 4] 2452 	ld	c, l
      000AD3 44               [ 4] 2453 	ld	b, h
      000AD4 F8 09            [12] 2454 	ldhl	sp,	#9
      000AD6 3A               [ 8] 2455 	ld	a, (hl-)
      000AD7 77               [ 8] 2456 	ld	(hl), a
      000AD8 3E 09            [ 8] 2457 	ld	a, #0x09
      000ADA 96               [ 8] 2458 	sub	a, (hl)
      000ADB C5               [16] 2459 	push	bc
      000ADC 26 01            [ 8] 2460 	ld	h, #0x01
                                   2461 ;	spillPairReg hl
                                   2462 ;	spillPairReg hl
      000ADE E5               [16] 2463 	push	hl
      000ADF 33               [ 8] 2464 	inc	sp
      000AE0 26 01            [ 8] 2465 	ld	h, #0x01
                                   2466 ;	spillPairReg hl
                                   2467 ;	spillPairReg hl
      000AE2 E5               [16] 2468 	push	hl
      000AE3 33               [ 8] 2469 	inc	sp
      000AE4 26 03            [ 8] 2470 	ld	h, #0x03
                                   2471 ;	spillPairReg hl
                                   2472 ;	spillPairReg hl
      000AE6 E5               [16] 2473 	push	hl
      000AE7 33               [ 8] 2474 	inc	sp
      000AE8 F5               [16] 2475 	push	af
      000AE9 33               [ 8] 2476 	inc	sp
      000AEA CDr00r00         [24] 2477 	call	_set_bkg_tiles
      000AED E8 06            [16] 2478 	add	sp, #6
                                   2479 ;main.c:245: UINT16 needmod = (((((_player.level-1) * 400)+300) / power(10, i)) % 10) + 20;
      000AEF FAr40r05         [16] 2480 	ld	a, (#(__player + 4) + 0)
      000AF2 4F               [ 4] 2481 	ld	c, a
      000AF3 07               [ 4] 2482 	rlca
      000AF4 9F               [ 4] 2483 	sbc	a, a
      000AF5 47               [ 4] 2484 	ld	b, a
      000AF6 0B               [ 8] 2485 	dec	bc
      000AF7 69               [ 4] 2486 	ld	l, c
      000AF8 60               [ 4] 2487 	ld	h, b
      000AF9 29               [ 8] 2488 	add	hl, hl
      000AFA 09               [ 8] 2489 	add	hl, bc
      000AFB 29               [ 8] 2490 	add	hl, hl
      000AFC 29               [ 8] 2491 	add	hl, hl
      000AFD 29               [ 8] 2492 	add	hl, hl
      000AFE 09               [ 8] 2493 	add	hl, bc
      000AFF 29               [ 8] 2494 	add	hl, hl
      000B00 29               [ 8] 2495 	add	hl, hl
      000B01 29               [ 8] 2496 	add	hl, hl
      000B02 29               [ 8] 2497 	add	hl, hl
      000B03 01 2C 01         [12] 2498 	ld	bc,#0x012c
      000B06 09               [ 8] 2499 	add	hl,bc
      000B07 E5               [16] 2500 	push	hl
      000B08 F8 0B            [12] 2501 	ldhl	sp,	#11
      000B0A 5E               [ 8] 2502 	ld	e, (hl)
      000B0B 3E 0A            [ 8] 2503 	ld	a, #0x0a
      000B0D CDr3Ar0A         [24] 2504 	call	_power
      000B10 F8 02            [12] 2505 	ldhl	sp,	#2
      000B12 79               [ 4] 2506 	ld	a, c
      000B13 22               [ 8] 2507 	ld	(hl+), a
      000B14 78               [ 4] 2508 	ld	a, b
      000B15 22               [ 8] 2509 	ld	(hl+), a
      000B16 7B               [ 4] 2510 	ld	a, e
      000B17 22               [ 8] 2511 	ld	(hl+), a
      000B18 72               [ 8] 2512 	ld	(hl), d
      000B19 C1               [12] 2513 	pop	bc
      000B1A 78               [ 4] 2514 	ld	a, b
      000B1B 07               [ 4] 2515 	rlca
      000B1C 9F               [ 4] 2516 	sbc	a, a
      000B1D 5F               [ 4] 2517 	ld	e, a
      000B1E 57               [ 4] 2518 	ld	d, a
      000B1F F8 02            [12] 2519 	ldhl	sp,	#2
      000B21 2A               [ 8] 2520 	ld	a, (hl+)
      000B22 66               [ 8] 2521 	ld	h, (hl)
                                   2522 ;	spillPairReg hl
                                   2523 ;	spillPairReg hl
      000B23 6F               [ 4] 2524 	ld	l, a
                                   2525 ;	spillPairReg hl
                                   2526 ;	spillPairReg hl
      000B24 E5               [16] 2527 	push	hl
      000B25 F8 02            [12] 2528 	ldhl	sp,	#2
      000B27 2A               [ 8] 2529 	ld	a, (hl+)
      000B28 66               [ 8] 2530 	ld	h, (hl)
                                   2531 ;	spillPairReg hl
                                   2532 ;	spillPairReg hl
      000B29 6F               [ 4] 2533 	ld	l, a
                                   2534 ;	spillPairReg hl
                                   2535 ;	spillPairReg hl
      000B2A E5               [16] 2536 	push	hl
      000B2B CDr00r00         [24] 2537 	call	__divulong
      000B2E 21 00 00         [12] 2538 	ld	hl, #0x0000
      000B31 E5               [16] 2539 	push	hl
      000B32 2E 0A            [ 8] 2540 	ld	l, #0x0a
      000B34 E5               [16] 2541 	push	hl
      000B35 CDr00r00         [24] 2542 	call	__modulong
      000B38 21 14 00         [12] 2543 	ld	hl, #0x0014
      000B3B 09               [ 8] 2544 	add	hl, bc
      000B3C E5               [16] 2545 	push	hl
      000B3D 7D               [ 4] 2546 	ld	a, l
      000B3E F8 08            [12] 2547 	ldhl	sp,	#8
      000B40 77               [ 8] 2548 	ld	(hl), a
      000B41 E1               [12] 2549 	pop	hl
      000B42 7C               [ 4] 2550 	ld	a, h
      000B43 F8 07            [12] 2551 	ldhl	sp,	#7
                                   2552 ;main.c:246: set_bkg_tiles(14 - i, 3, 1, 1, &needmod);
      000B45 22               [ 8] 2553 	ld	(hl+), a
      000B46 3E 0E            [ 8] 2554 	ld	a, #0x0e
      000B48 96               [ 8] 2555 	sub	a, (hl)
      000B49 77               [ 8] 2556 	ld	(hl), a
      000B4A 21 06 00         [12] 2557 	ld	hl, #6
      000B4D 39               [ 8] 2558 	add	hl, sp
      000B4E E5               [16] 2559 	push	hl
      000B4F 21 01 01         [12] 2560 	ld	hl, #0x101
      000B52 E5               [16] 2561 	push	hl
      000B53 3E 03            [ 8] 2562 	ld	a, #0x03
      000B55 F5               [16] 2563 	push	af
      000B56 33               [ 8] 2564 	inc	sp
      000B57 F8 0D            [12] 2565 	ldhl	sp,	#13
      000B59 7E               [ 8] 2566 	ld	a, (hl)
      000B5A F5               [16] 2567 	push	af
      000B5B 33               [ 8] 2568 	inc	sp
      000B5C CDr00r00         [24] 2569 	call	_set_bkg_tiles
      000B5F E8 06            [16] 2570 	add	sp, #6
                                   2571 ;main.c:242: for (UINT8 i = 0; i < 4; i++) {
      000B61 F8 09            [12] 2572 	ldhl	sp,	#9
      000B63 34               [12] 2573 	inc	(hl)
      000B64 C3r83r0A         [16] 2574 	jp	00103$
      000B67                       2575 00101$:
                                   2576 ;main.c:248: UINT8 lvl = (_player.level + 20);
      000B67 FAr40r05         [16] 2577 	ld	a, (#(__player + 4) + 0)
      000B6A C6 14            [ 8] 2578 	add	a, #0x14
      000B6C F8 07            [12] 2579 	ldhl	sp,	#7
      000B6E 77               [ 8] 2580 	ld	(hl), a
                                   2581 ;main.c:249: set_bkg_tiles(8, 1, 1, 1, &lvl);
      000B6F 21 07 00         [12] 2582 	ld	hl, #7
      000B72 39               [ 8] 2583 	add	hl, sp
      000B73 E5               [16] 2584 	push	hl
      000B74 21 01 01         [12] 2585 	ld	hl, #0x101
      000B77 E5               [16] 2586 	push	hl
      000B78 3E 01            [ 8] 2587 	ld	a, #0x01
      000B7A F5               [16] 2588 	push	af
      000B7B 33               [ 8] 2589 	inc	sp
      000B7C 3E 08            [ 8] 2590 	ld	a, #0x08
      000B7E F5               [16] 2591 	push	af
      000B7F 33               [ 8] 2592 	inc	sp
      000B80 CDr00r00         [24] 2593 	call	_set_bkg_tiles
                                   2594 ;main.c:250: }
      000B83 E8 10            [16] 2595 	add	sp, #16
      000B85 C9               [16] 2596 	ret
                                   2597 ;main.c:252: void DrawWater(UINT8 cnt, UBYTE add) {
                                   2598 ;	---------------------------------
                                   2599 ; Function DrawWater
                                   2600 ; ---------------------------------
      000B86                       2601 _DrawWater::
      000B86 3B               [ 8] 2602 	dec	sp
      000B87 47               [ 4] 2603 	ld	b, a
                                   2604 ;main.c:253: if (cnt > 11) return;
      000B88 3E 0B            [ 8] 2605 	ld	a, #0x0b
      000B8A 90               [ 4] 2606 	sub	a, b
      000B8B 38 3C            [12] 2607 	jr	C, 00106$
                                   2608 ;main.c:255: if (add) {
      000B8D 7B               [ 4] 2609 	ld	a, e
      000B8E B7               [ 4] 2610 	or	a, a
      000B8F 28 1A            [12] 2611 	jr	Z, 00104$
                                   2612 ;main.c:256: tmp = 30;
      000B91 F8 00            [12] 2613 	ldhl	sp,	#0
      000B93 36 1E            [12] 2614 	ld	(hl), #0x1e
                                   2615 ;main.c:257: set_bkg_tiles(cnt, 6, 1, 1, &tmp);
      000B95 21 00 00         [12] 2616 	ld	hl, #0
      000B98 39               [ 8] 2617 	add	hl, sp
      000B99 E5               [16] 2618 	push	hl
      000B9A 21 01 01         [12] 2619 	ld	hl, #0x101
      000B9D E5               [16] 2620 	push	hl
      000B9E 3E 06            [ 8] 2621 	ld	a, #0x06
      000BA0 F5               [16] 2622 	push	af
      000BA1 33               [ 8] 2623 	inc	sp
      000BA2 C5               [16] 2624 	push	bc
      000BA3 33               [ 8] 2625 	inc	sp
      000BA4 CDr00r00         [24] 2626 	call	_set_bkg_tiles
      000BA7 E8 06            [16] 2627 	add	sp, #6
      000BA9 18 04            [12] 2628 	jr	00105$
      000BAB                       2629 00104$:
                                   2630 ;main.c:260: tmp = 0;
      000BAB F8 00            [12] 2631 	ldhl	sp,	#0
      000BAD 36 00            [12] 2632 	ld	(hl), #0x00
      000BAF                       2633 00105$:
                                   2634 ;main.c:261: set_bkg_tiles(cnt+1, 6, 1, 1,&tmp );
      000BAF 21 00 00         [12] 2635 	ld	hl, #0
      000BB2 39               [ 8] 2636 	add	hl, sp
      000BB3 78               [ 4] 2637 	ld	a, b
      000BB4 3C               [ 4] 2638 	inc	a
      000BB5 E5               [16] 2639 	push	hl
      000BB6 26 01            [ 8] 2640 	ld	h, #0x01
                                   2641 ;	spillPairReg hl
                                   2642 ;	spillPairReg hl
      000BB8 E5               [16] 2643 	push	hl
      000BB9 33               [ 8] 2644 	inc	sp
      000BBA 26 01            [ 8] 2645 	ld	h, #0x01
                                   2646 ;	spillPairReg hl
                                   2647 ;	spillPairReg hl
      000BBC E5               [16] 2648 	push	hl
      000BBD 33               [ 8] 2649 	inc	sp
      000BBE 26 06            [ 8] 2650 	ld	h, #0x06
                                   2651 ;	spillPairReg hl
                                   2652 ;	spillPairReg hl
      000BC0 E5               [16] 2653 	push	hl
      000BC1 33               [ 8] 2654 	inc	sp
      000BC2 F5               [16] 2655 	push	af
      000BC3 33               [ 8] 2656 	inc	sp
      000BC4 CDr00r00         [24] 2657 	call	_set_bkg_tiles
      000BC7 E8 06            [16] 2658 	add	sp, #6
      000BC9                       2659 00106$:
                                   2660 ;main.c:262: }
      000BC9 33               [ 8] 2661 	inc	sp
      000BCA C9               [16] 2662 	ret
                                   2663 ;main.c:263: int main(void) {
                                   2664 ;	---------------------------------
                                   2665 ; Function main
                                   2666 ; ---------------------------------
      000BCB                       2667 _main::
      000BCB E8 F9            [16] 2668 	add	sp, #-7
                                   2669 ;main.c:265: _fieldInit();
      000BCD CDr00r00         [24] 2670 	call	__fieldInit
                                   2671 ;main.c:267: SPRITES_8x16;
      000BD0 F0r00            [12] 2672 	ldh	a, (_LCDC_REG + 0)
      000BD2 F6 04            [ 8] 2673 	or	a, #0x04
      000BD4 E0r00            [12] 2674 	ldh	(_LCDC_REG + 0), a
                                   2675 ;main.c:269: set_sprite_data(0, 4, Player);
      000BD6 11r00r00         [12] 2676 	ld	de, #_Player
      000BD9 D5               [16] 2677 	push	de
      000BDA 21 00 04         [12] 2678 	ld	hl, #0x400
      000BDD E5               [16] 2679 	push	hl
      000BDE CDr00r00         [24] 2680 	call	_set_sprite_data
      000BE1 E8 04            [16] 2681 	add	sp, #4
                                   2682 ;main.c:270: set_sprite_data(4, 12, Brick);
      000BE3 11r40r00         [12] 2683 	ld	de, #_Brick
      000BE6 D5               [16] 2684 	push	de
      000BE7 21 04 0C         [12] 2685 	ld	hl, #0xc04
      000BEA E5               [16] 2686 	push	hl
      000BEB CDr00r00         [24] 2687 	call	_set_sprite_data
      000BEE E8 04            [16] 2688 	add	sp, #4
                                   2689 ;main.c:271: set_sprite_data(16, 4, Stone);
      000BF0 11r00r01         [12] 2690 	ld	de, #_Stone
      000BF3 D5               [16] 2691 	push	de
      000BF4 21 10 04         [12] 2692 	ld	hl, #0x410
      000BF7 E5               [16] 2693 	push	hl
      000BF8 CDr00r00         [24] 2694 	call	_set_sprite_data
      000BFB E8 04            [16] 2695 	add	sp, #4
                                   2696 ;main.c:272: set_sprite_data(20, 8, Coin);
      000BFD 11r98r04         [12] 2697 	ld	de, #_Coin
      000C00 D5               [16] 2698 	push	de
      000C01 21 14 08         [12] 2699 	ld	hl, #0x814
      000C04 E5               [16] 2700 	push	hl
      000C05 CDr00r00         [24] 2701 	call	_set_sprite_data
      000C08 E8 04            [16] 2702 	add	sp, #4
                                   2703 ;main.c:273: set_sprite_data(28, 2, Water);
      000C0A 11r18r05         [12] 2704 	ld	de, #_Water
      000C0D D5               [16] 2705 	push	de
      000C0E 21 1C 02         [12] 2706 	ld	hl, #0x21c
      000C11 E5               [16] 2707 	push	hl
      000C12 CDr00r00         [24] 2708 	call	_set_sprite_data
      000C15 E8 04            [16] 2709 	add	sp, #4
                                   2710 ;main.c:275: set_bkg_data(0, 31, HUD);
      000C17 11rA8r02         [12] 2711 	ld	de, #_HUD
      000C1A D5               [16] 2712 	push	de
      000C1B 21 00 1F         [12] 2713 	ld	hl, #0x1f00
      000C1E E5               [16] 2714 	push	hl
      000C1F CDr00r00         [24] 2715 	call	_set_bkg_data
      000C22 E8 04            [16] 2716 	add	sp, #4
                                   2717 ;main.c:276: set_bkg_tiles(0, 0, 20, 18, BG);
      000C24 11r40r01         [12] 2718 	ld	de, #_BG
      000C27 D5               [16] 2719 	push	de
      000C28 21 14 12         [12] 2720 	ld	hl, #0x1214
      000C2B E5               [16] 2721 	push	hl
      000C2C AF               [ 4] 2722 	xor	a, a
      000C2D 0F               [ 4] 2723 	rrca
      000C2E F5               [16] 2724 	push	af
      000C2F CDr00r00         [24] 2725 	call	_set_bkg_tiles
      000C32 E8 06            [16] 2726 	add	sp, #6
                                   2727 ;main.c:278: initrand(0);
      000C34 11 00 00         [12] 2728 	ld	de, #0x0000
      000C37 D5               [16] 2729 	push	de
      000C38 CDr00r00         [24] 2730 	call	_initrand
      000C3B E1               [12] 2731 	pop	hl
                                   2732 ;main.c:282: while (_countStone > 0) { _spawn(1); _countStone -= 1; }
      000C3C                       2733 00101$:
      000C3C FAr39r05         [16] 2734 	ld	a, (#__countStone)
      000C3F B7               [ 4] 2735 	or	a, a
      000C40 28 0C            [12] 2736 	jr	Z, 00104$
      000C42 3E 01            [ 8] 2737 	ld	a, #0x01
      000C44 CDrB3r08         [24] 2738 	call	__spawn
      000C47 21r39r05         [12] 2739 	ld	hl, #__countStone
      000C4A 35               [12] 2740 	dec	(hl)
      000C4B 7E               [ 8] 2741 	ld	a, (hl)
      000C4C 18 EE            [12] 2742 	jr	00101$
                                   2743 ;main.c:283: while (_countBrick > 0) { _spawn(2); _countBrick -= 1; }
      000C4E                       2744 00104$:
      000C4E FAr38r05         [16] 2745 	ld	a, (#__countBrick)
      000C51 B7               [ 4] 2746 	or	a, a
      000C52 28 0C            [12] 2747 	jr	Z, 00107$
      000C54 3E 02            [ 8] 2748 	ld	a, #0x02
      000C56 CDrB3r08         [24] 2749 	call	__spawn
      000C59 21r38r05         [12] 2750 	ld	hl, #__countBrick
      000C5C 35               [12] 2751 	dec	(hl)
      000C5D 7E               [ 8] 2752 	ld	a, (hl)
      000C5E 18 EE            [12] 2753 	jr	00104$
                                   2754 ;main.c:284: while (_countCoin > 0) { _spawn(5); _countCoin -= 1; }
      000C60                       2755 00107$:
      000C60 FAr3Ar05         [16] 2756 	ld	a, (#__countCoin)
      000C63 B7               [ 4] 2757 	or	a, a
      000C64 28 0C            [12] 2758 	jr	Z, 00110$
      000C66 3E 05            [ 8] 2759 	ld	a, #0x05
      000C68 CDrB3r08         [24] 2760 	call	__spawn
      000C6B 21r3Ar05         [12] 2761 	ld	hl, #__countCoin
      000C6E 35               [12] 2762 	dec	(hl)
      000C6F 7E               [ 8] 2763 	ld	a, (hl)
      000C70 18 EE            [12] 2764 	jr	00107$
                                   2765 ;main.c:285: while (_countWater > 0) { _spawn(6); _countWater -= 1; }
      000C72                       2766 00110$:
      000C72 FAr3Br05         [16] 2767 	ld	a, (#__countWater)
      000C75 B7               [ 4] 2768 	or	a, a
      000C76 28 0C            [12] 2769 	jr	Z, 00112$
      000C78 3E 06            [ 8] 2770 	ld	a, #0x06
      000C7A CDrB3r08         [24] 2771 	call	__spawn
      000C7D 21r3Br05         [12] 2772 	ld	hl, #__countWater
      000C80 35               [12] 2773 	dec	(hl)
      000C81 7E               [ 8] 2774 	ld	a, (hl)
      000C82 18 EE            [12] 2775 	jr	00110$
      000C84                       2776 00112$:
                                   2777 ;main.c:287: SHOW_BKG;
      000C84 F0r00            [12] 2778 	ldh	a, (_LCDC_REG + 0)
      000C86 F6 01            [ 8] 2779 	or	a, #0x01
      000C88 E0r00            [12] 2780 	ldh	(_LCDC_REG + 0), a
                                   2781 ;main.c:288: SHOW_SPRITES;
      000C8A F0r00            [12] 2782 	ldh	a, (_LCDC_REG + 0)
      000C8C F6 02            [ 8] 2783 	or	a, #0x02
      000C8E E0r00            [12] 2784 	ldh	(_LCDC_REG + 0), a
                                   2785 ;main.c:289: DISPLAY_ON;
      000C90 F0r00            [12] 2786 	ldh	a, (_LCDC_REG + 0)
      000C92 F6 80            [ 8] 2787 	or	a, #0x80
      000C94 E0r00            [12] 2788 	ldh	(_LCDC_REG + 0), a
                                   2789 ;main.c:291: DrawUI();
      000C96 CDr7Dr0A         [24] 2790 	call	_DrawUI
                                   2791 ;main.c:293: for (UINT8 i = 0; i < 11; i++) {
      000C99 0E 00            [ 8] 2792 	ld	c, #0x00
      000C9B                       2793 00139$:
      000C9B 79               [ 4] 2794 	ld	a, c
      000C9C D6 0B            [ 8] 2795 	sub	a, #0x0b
      000C9E 30 27            [12] 2796 	jr	NC, 00136$
                                   2797 ;main.c:294: UINT32 mod = 30;
      000CA0 F8 02            [12] 2798 	ldhl	sp,	#2
      000CA2 3E 1E            [ 8] 2799 	ld	a, #0x1e
      000CA4 22               [ 8] 2800 	ld	(hl+), a
      000CA5 AF               [ 4] 2801 	xor	a, a
      000CA6 22               [ 8] 2802 	ld	(hl+), a
      000CA7 22               [ 8] 2803 	ld	(hl+), a
      000CA8 77               [ 8] 2804 	ld	(hl), a
                                   2805 ;main.c:295: set_bkg_tiles(2 + i, 6, 1, 1, &mod);
      000CA9 F8 02            [12] 2806 	ldhl	sp,	#2
      000CAB 5D               [ 4] 2807 	ld	e, l
      000CAC 54               [ 4] 2808 	ld	d, h
      000CAD 79               [ 4] 2809 	ld	a, c
      000CAE C6 02            [ 8] 2810 	add	a, #0x02
      000CB0 D5               [16] 2811 	push	de
      000CB1 26 01            [ 8] 2812 	ld	h, #0x01
                                   2813 ;	spillPairReg hl
                                   2814 ;	spillPairReg hl
      000CB3 E5               [16] 2815 	push	hl
      000CB4 33               [ 8] 2816 	inc	sp
      000CB5 26 01            [ 8] 2817 	ld	h, #0x01
                                   2818 ;	spillPairReg hl
                                   2819 ;	spillPairReg hl
      000CB7 E5               [16] 2820 	push	hl
      000CB8 33               [ 8] 2821 	inc	sp
      000CB9 26 06            [ 8] 2822 	ld	h, #0x06
                                   2823 ;	spillPairReg hl
                                   2824 ;	spillPairReg hl
      000CBB E5               [16] 2825 	push	hl
      000CBC 33               [ 8] 2826 	inc	sp
      000CBD F5               [16] 2827 	push	af
      000CBE 33               [ 8] 2828 	inc	sp
      000CBF CDr00r00         [24] 2829 	call	_set_bkg_tiles
      000CC2 E8 06            [16] 2830 	add	sp, #6
                                   2831 ;main.c:293: for (UINT8 i = 0; i < 11; i++) {
      000CC4 0C               [ 4] 2832 	inc	c
      000CC5 18 D4            [12] 2833 	jr	00139$
                                   2834 ;main.c:298: while (1) {
      000CC7                       2835 00136$:
                                   2836 ;main.c:300: if (_player.sprX == _player.x * grid && _player.sprY == _player.y * grid) { _control(); }
      000CC7 21r3Er05         [12] 2837 	ld	hl, #__player + 2
      000CCA 4E               [ 8] 2838 	ld	c, (hl)
      000CCB FAr3Cr05         [16] 2839 	ld	a, (#__player + 0)
      000CCE 6F               [ 4] 2840 	ld	l, a
                                   2841 ;	spillPairReg hl
                                   2842 ;	spillPairReg hl
      000CCF 07               [ 4] 2843 	rlca
      000CD0 9F               [ 4] 2844 	sbc	a, a
      000CD1 67               [ 4] 2845 	ld	h, a
                                   2846 ;	spillPairReg hl
                                   2847 ;	spillPairReg hl
      000CD2 29               [ 8] 2848 	add	hl, hl
      000CD3 29               [ 8] 2849 	add	hl, hl
      000CD4 29               [ 8] 2850 	add	hl, hl
      000CD5 29               [ 8] 2851 	add	hl, hl
      000CD6 79               [ 4] 2852 	ld	a, c
      000CD7 07               [ 4] 2853 	rlca
      000CD8 9F               [ 4] 2854 	sbc	a, a
      000CD9 47               [ 4] 2855 	ld	b, a
      000CDA 7D               [ 4] 2856 	ld	a, l
      000CDB 91               [ 4] 2857 	sub	a, c
      000CDC 20 22            [12] 2858 	jr	NZ, 00115$
      000CDE 7C               [ 4] 2859 	ld	a, h
      000CDF 90               [ 4] 2860 	sub	a, b
      000CE0 20 1E            [12] 2861 	jr	NZ, 00115$
      000CE2 21r3Fr05         [12] 2862 	ld	hl, #__player + 3
      000CE5 4E               [ 8] 2863 	ld	c, (hl)
      000CE6 FAr3Dr05         [16] 2864 	ld	a, (#(__player + 1) + 0)
      000CE9 6F               [ 4] 2865 	ld	l, a
                                   2866 ;	spillPairReg hl
                                   2867 ;	spillPairReg hl
      000CEA 07               [ 4] 2868 	rlca
      000CEB 9F               [ 4] 2869 	sbc	a, a
      000CEC 67               [ 4] 2870 	ld	h, a
      000CED 29               [ 8] 2871 	add	hl, hl
      000CEE 29               [ 8] 2872 	add	hl, hl
      000CEF 29               [ 8] 2873 	add	hl, hl
      000CF0 29               [ 8] 2874 	add	hl, hl
      000CF1 79               [ 4] 2875 	ld	a, c
      000CF2 07               [ 4] 2876 	rlca
      000CF3 9F               [ 4] 2877 	sbc	a, a
      000CF4 47               [ 4] 2878 	ld	b, a
      000CF5 7D               [ 4] 2879 	ld	a, l
      000CF6 91               [ 4] 2880 	sub	a, c
      000CF7 20 07            [12] 2881 	jr	NZ, 00115$
      000CF9 7C               [ 4] 2882 	ld	a, h
      000CFA 90               [ 4] 2883 	sub	a, b
      000CFB 20 03            [12] 2884 	jr	NZ, 00115$
      000CFD CDr90r07         [24] 2885 	call	__control
      000D00                       2886 00115$:
                                   2887 ;main.c:302: if (_countStone > 0) { _spawn(1); _countStone -= 1; }
      000D00 FAr39r05         [16] 2888 	ld	a, (#__countStone)
      000D03 B7               [ 4] 2889 	or	a, a
      000D04 28 0A            [12] 2890 	jr	Z, 00118$
      000D06 3E 01            [ 8] 2891 	ld	a, #0x01
      000D08 CDrB3r08         [24] 2892 	call	__spawn
      000D0B 21r39r05         [12] 2893 	ld	hl, #__countStone
      000D0E 35               [12] 2894 	dec	(hl)
      000D0F 7E               [ 8] 2895 	ld	a, (hl)
      000D10                       2896 00118$:
                                   2897 ;main.c:303: if (_countBrick > 0) { _spawn(2); _countBrick -= 1; }
      000D10 FAr38r05         [16] 2898 	ld	a, (#__countBrick)
      000D13 B7               [ 4] 2899 	or	a, a
      000D14 28 0A            [12] 2900 	jr	Z, 00120$
      000D16 3E 02            [ 8] 2901 	ld	a, #0x02
      000D18 CDrB3r08         [24] 2902 	call	__spawn
      000D1B 21r38r05         [12] 2903 	ld	hl, #__countBrick
      000D1E 35               [12] 2904 	dec	(hl)
      000D1F 7E               [ 8] 2905 	ld	a, (hl)
      000D20                       2906 00120$:
                                   2907 ;main.c:304: if (_countCoin > 0) { _spawn(5); _countCoin -= 1; }
      000D20 FAr3Ar05         [16] 2908 	ld	a, (#__countCoin)
      000D23 B7               [ 4] 2909 	or	a, a
      000D24 28 0A            [12] 2910 	jr	Z, 00122$
      000D26 3E 05            [ 8] 2911 	ld	a, #0x05
      000D28 CDrB3r08         [24] 2912 	call	__spawn
      000D2B 21r3Ar05         [12] 2913 	ld	hl, #__countCoin
      000D2E 35               [12] 2914 	dec	(hl)
      000D2F 7E               [ 8] 2915 	ld	a, (hl)
      000D30                       2916 00122$:
                                   2917 ;main.c:305: if (_countWater > 0) { _spawn(6); _countWater -= 1; }
      000D30 FAr3Br05         [16] 2918 	ld	a, (#__countWater)
      000D33 B7               [ 4] 2919 	or	a, a
      000D34 28 0A            [12] 2920 	jr	Z, 00124$
      000D36 3E 06            [ 8] 2921 	ld	a, #0x06
      000D38 CDrB3r08         [24] 2922 	call	__spawn
      000D3B 21r3Br05         [12] 2923 	ld	hl, #__countWater
      000D3E 35               [12] 2924 	dec	(hl)
      000D3F 7E               [ 8] 2925 	ld	a, (hl)
      000D40                       2926 00124$:
                                   2927 ;main.c:307: _playerDraw();
      000D40 CDrD8r04         [24] 2928 	call	__playerDraw
                                   2929 ;main.c:308: _smoothMove();
      000D43 CDrC4r07         [24] 2930 	call	__smoothMove
                                   2931 ;main.c:309: _draw();
      000D46 CDr39r09         [24] 2932 	call	__draw
                                   2933 ;main.c:311: _bonus.anim++;
      000D49 FAr46r05         [16] 2934 	ld	a, (#(__bonus + 1) + 0)
      000D4C 3C               [ 4] 2935 	inc	a
      000D4D EAr46r05         [16] 2936 	ld	(#(__bonus + 1)),a
                                   2937 ;main.c:312: _player.water-=2;
      000D50 21r43r05         [12] 2938 	ld	hl, #(__player + 7)
      000D53 2A               [ 8] 2939 	ld	a, (hl+)
      000D54 4F               [ 4] 2940 	ld	c, a
      000D55 46               [ 8] 2941 	ld	b, (hl)
      000D56 11 02 00         [12] 2942 	ld	de, #0x0002
      000D59 79               [ 4] 2943 	ld	a, c
      000D5A 93               [ 4] 2944 	sub	a, e
      000D5B 5F               [ 4] 2945 	ld	e, a
      000D5C 78               [ 4] 2946 	ld	a, b
      000D5D 9A               [ 4] 2947 	sbc	a, d
      000D5E F8 01            [12] 2948 	ldhl	sp,	#1
      000D60 32               [ 8] 2949 	ld	(hl-), a
      000D61 73               [ 8] 2950 	ld	(hl), e
      000D62 11r43r05         [12] 2951 	ld	de, #(__player + 7)
      000D65 2A               [ 8] 2952 	ld	a, (hl+)
      000D66 12               [ 8] 2953 	ld	(de), a
      000D67 13               [ 8] 2954 	inc	de
      000D68 7E               [ 8] 2955 	ld	a, (hl)
      000D69 12               [ 8] 2956 	ld	(de), a
                                   2957 ;main.c:313: if (_player.water % 100 == 0) {
      000D6A 01 64 00         [12] 2958 	ld	bc, #0x0064
      000D6D D1               [12] 2959 	pop	de
      000D6E D5               [16] 2960 	push	de
      000D6F CDr00r00         [24] 2961 	call	__modsint
      000D72 78               [ 4] 2962 	ld	a, b
      000D73 B1               [ 4] 2963 	or	a, c
      000D74 20 16            [12] 2964 	jr	NZ, 00126$
                                   2965 ;main.c:314: DrawWater((_player.water/100)+3,0);
      000D76 21r43r05         [12] 2966 	ld	hl, #(__player + 7)
      000D79 2A               [ 8] 2967 	ld	a,	(hl+)
      000D7A 66               [ 8] 2968 	ld	h, (hl)
                                   2969 ;	spillPairReg hl
                                   2970 ;	spillPairReg hl
                                   2971 ;	spillPairReg hl
      000D7B 5F               [ 4] 2972 	ld	e, a
      000D7C 01 64 00         [12] 2973 	ld	bc, #0x0064
      000D7F 54               [ 4] 2974 	ld	d, h
      000D80 CDr00r00         [24] 2975 	call	__divsint
      000D83 0C               [ 4] 2976 	inc	c
      000D84 0C               [ 4] 2977 	inc	c
      000D85 0C               [ 4] 2978 	inc	c
      000D86 1E 00            [ 8] 2979 	ld	e, #0x00
      000D88 79               [ 4] 2980 	ld	a, c
      000D89 CDr86r0B         [24] 2981 	call	_DrawWater
      000D8C                       2982 00126$:
                                   2983 ;main.c:316: if (_player.exp >= ((_player.level - 1) * 400) + 300) _player.level++;
      000D8C 21r41r05         [12] 2984 	ld	hl, #(__player + 5)
      000D8F 2A               [ 8] 2985 	ld	a, (hl+)
      000D90 4F               [ 4] 2986 	ld	c, a
      000D91 46               [ 8] 2987 	ld	b, (hl)
      000D92 FAr40r05         [16] 2988 	ld	a, (#(__player + 4) + 0)
      000D95 F8 06            [12] 2989 	ldhl	sp,#6
      000D97 77               [ 8] 2990 	ld	(hl), a
      000D98 7E               [ 8] 2991 	ld	a, (hl)
      000D99 5F               [ 4] 2992 	ld	e, a
      000D9A 07               [ 4] 2993 	rlca
      000D9B 9F               [ 4] 2994 	sbc	a, a
      000D9C 6B               [ 4] 2995 	ld	l, e
      000D9D 67               [ 4] 2996 	ld	h, a
      000D9E 2B               [ 8] 2997 	dec	hl
      000D9F 5D               [ 4] 2998 	ld	e, l
      000DA0 54               [ 4] 2999 	ld	d, h
      000DA1 29               [ 8] 3000 	add	hl, hl
      000DA2 19               [ 8] 3001 	add	hl, de
      000DA3 29               [ 8] 3002 	add	hl, hl
      000DA4 29               [ 8] 3003 	add	hl, hl
      000DA5 29               [ 8] 3004 	add	hl, hl
      000DA6 19               [ 8] 3005 	add	hl, de
      000DA7 29               [ 8] 3006 	add	hl, hl
      000DA8 29               [ 8] 3007 	add	hl, hl
      000DA9 29               [ 8] 3008 	add	hl, hl
      000DAA 29               [ 8] 3009 	add	hl, hl
      000DAB 11 2C 01         [12] 3010 	ld	de, #0x012c
      000DAE 19               [ 8] 3011 	add	hl, de
      000DAF 5C               [ 4] 3012 	ld	e, h
      000DB0 50               [ 4] 3013 	ld	d, b
      000DB1 79               [ 4] 3014 	ld	a, c
      000DB2 95               [ 4] 3015 	sub	a, l
      000DB3 78               [ 4] 3016 	ld	a, b
      000DB4 9C               [ 4] 3017 	sbc	a, h
      000DB5 CB 7B            [ 8] 3018 	bit	7, e
      000DB7 28 07            [12] 3019 	jr	Z, 00302$
      000DB9 CB 7A            [ 8] 3020 	bit	7, d
      000DBB 20 08            [12] 3021 	jr	NZ, 00303$
      000DBD BF               [ 4] 3022 	cp	a, a
      000DBE 18 05            [12] 3023 	jr	00303$
      000DC0                       3024 00302$:
      000DC0 CB 7A            [ 8] 3025 	bit	7, d
      000DC2 28 01            [12] 3026 	jr	Z, 00303$
      000DC4 37               [ 4] 3027 	scf
      000DC5                       3028 00303$:
      000DC5 38 07            [12] 3029 	jr	C, 00128$
      000DC7 F8 06            [12] 3030 	ldhl	sp,	#6
      000DC9 7E               [ 8] 3031 	ld	a, (hl)
      000DCA 3C               [ 4] 3032 	inc	a
      000DCB EAr40r05         [16] 3033 	ld	(#(__player + 4)),a
      000DCE                       3034 00128$:
                                   3035 ;main.c:317: if (_player.water > 1000) _player.water = 1000;
      000DCE 21r43r05         [12] 3036 	ld	hl, #(__player + 7)
      000DD1 2A               [ 8] 3037 	ld	a, (hl+)
      000DD2 4F               [ 4] 3038 	ld	c, a
      000DD3 46               [ 8] 3039 	ld	b, (hl)
      000DD4 58               [ 4] 3040 	ld	e, b
      000DD5 16 03            [ 8] 3041 	ld	d, #0x03
      000DD7 3E E8            [ 8] 3042 	ld	a, #0xe8
      000DD9 B9               [ 4] 3043 	cp	a, c
      000DDA 3E 03            [ 8] 3044 	ld	a, #0x03
      000DDC 98               [ 4] 3045 	sbc	a, b
      000DDD CB 7B            [ 8] 3046 	bit	7, e
      000DDF 28 07            [12] 3047 	jr	Z, 00304$
      000DE1 CB 7A            [ 8] 3048 	bit	7, d
      000DE3 20 08            [12] 3049 	jr	NZ, 00305$
      000DE5 BF               [ 4] 3050 	cp	a, a
      000DE6 18 05            [12] 3051 	jr	00305$
      000DE8                       3052 00304$:
      000DE8 CB 7A            [ 8] 3053 	bit	7, d
      000DEA 28 01            [12] 3054 	jr	Z, 00305$
      000DEC 37               [ 4] 3055 	scf
      000DED                       3056 00305$:
      000DED 30 08            [12] 3057 	jr	NC, 00130$
      000DEF 21r43r05         [12] 3058 	ld	hl, #(__player + 7)
      000DF2 3E E8            [ 8] 3059 	ld	a, #0xe8
      000DF4 22               [ 8] 3060 	ld	(hl+), a
      000DF5 36 03            [12] 3061 	ld	(hl), #0x03
      000DF7                       3062 00130$:
                                   3063 ;main.c:318: if (_bonus.anim >= 8) { _bonus.frame += 2; _bonus.anim = 0; }
      000DF7 FAr46r05         [16] 3064 	ld	a, (#(__bonus + 1) + 0)
      000DFA D6 08            [ 8] 3065 	sub	a, #0x08
      000DFC 38 0D            [12] 3066 	jr	C, 00132$
      000DFE FAr45r05         [16] 3067 	ld	a, (#__bonus + 0)
      000E01 C6 02            [ 8] 3068 	add	a, #0x02
      000E03 EAr45r05         [16] 3069 	ld	(#__bonus),a
      000E06 21r46r05         [12] 3070 	ld	hl, #(__bonus + 1)
      000E09 36 00            [12] 3071 	ld	(hl), #0x00
      000E0B                       3072 00132$:
                                   3073 ;main.c:319: if (_bonus.frame > 6) _bonus.frame = 0;
      000E0B 21r45r05         [12] 3074 	ld	hl, #__bonus
      000E0E 4E               [ 8] 3075 	ld	c, (hl)
      000E0F 3E 06            [ 8] 3076 	ld	a, #0x06
      000E11 91               [ 4] 3077 	sub	a, c
      000E12 30 05            [12] 3078 	jr	NC, 00134$
      000E14 21r45r05         [12] 3079 	ld	hl, #__bonus
      000E17 36 00            [12] 3080 	ld	(hl), #0x00
      000E19                       3081 00134$:
                                   3082 ;main.c:321: wait_vbl_done();
      000E19 CDr00r00         [24] 3083 	call	_wait_vbl_done
      000E1C C3rC7r0C         [16] 3084 	jp	00136$
                                   3085 ;main.c:323: }
      000E1F E8 07            [16] 3086 	add	sp, #7
      000E21 C9               [16] 3087 	ret
                                   3088 	.area _CODE
                                   3089 	.area _INITIALIZER
      000000                       3090 __xinit__Player:
      000000 3F                    3091 	.db #0x3f	; 63
      000001 3F                    3092 	.db #0x3f	; 63
      000002 7F                    3093 	.db #0x7f	; 127
      000003 40                    3094 	.db #0x40	; 64
      000004 FF                    3095 	.db #0xff	; 255
      000005 80                    3096 	.db #0x80	; 128
      000006 FF                    3097 	.db #0xff	; 255
      000007 BE                    3098 	.db #0xbe	; 190
      000008 FF                    3099 	.db #0xff	; 255
      000009 8C                    3100 	.db #0x8c	; 140
      00000A FF                    3101 	.db #0xff	; 255
      00000B 8C                    3102 	.db #0x8c	; 140
      00000C FF                    3103 	.db #0xff	; 255
      00000D 80                    3104 	.db #0x80	; 128
      00000E FF                    3105 	.db #0xff	; 255
      00000F 80                    3106 	.db #0x80	; 128
      000010 FF                    3107 	.db #0xff	; 255
      000011 80                    3108 	.db #0x80	; 128
      000012 FF                    3109 	.db #0xff	; 255
      000013 80                    3110 	.db #0x80	; 128
      000014 FF                    3111 	.db #0xff	; 255
      000015 87                    3112 	.db #0x87	; 135
      000016 FF                    3113 	.db #0xff	; 255
      000017 83                    3114 	.db #0x83	; 131
      000018 FF                    3115 	.db #0xff	; 255
      000019 80                    3116 	.db #0x80	; 128
      00001A FF                    3117 	.db #0xff	; 255
      00001B 81                    3118 	.db #0x81	; 129
      00001C 7F                    3119 	.db #0x7f	; 127
      00001D 40                    3120 	.db #0x40	; 64
      00001E 3F                    3121 	.db #0x3f	; 63
      00001F 3F                    3122 	.db #0x3f	; 63
      000020 FC                    3123 	.db #0xfc	; 252
      000021 FC                    3124 	.db #0xfc	; 252
      000022 FE                    3125 	.db #0xfe	; 254
      000023 02                    3126 	.db #0x02	; 2
      000024 FF                    3127 	.db #0xff	; 255
      000025 01                    3128 	.db #0x01	; 1
      000026 FF                    3129 	.db #0xff	; 255
      000027 7D                    3130 	.db #0x7d	; 125
      000028 FF                    3131 	.db #0xff	; 255
      000029 31                    3132 	.db #0x31	; 49	'1'
      00002A FF                    3133 	.db #0xff	; 255
      00002B 31                    3134 	.db #0x31	; 49	'1'
      00002C FF                    3135 	.db #0xff	; 255
      00002D 01                    3136 	.db #0x01	; 1
      00002E FF                    3137 	.db #0xff	; 255
      00002F 01                    3138 	.db #0x01	; 1
      000030 FF                    3139 	.db #0xff	; 255
      000031 01                    3140 	.db #0x01	; 1
      000032 FF                    3141 	.db #0xff	; 255
      000033 01                    3142 	.db #0x01	; 1
      000034 FF                    3143 	.db #0xff	; 255
      000035 E1                    3144 	.db #0xe1	; 225
      000036 FF                    3145 	.db #0xff	; 255
      000037 C1                    3146 	.db #0xc1	; 193
      000038 FF                    3147 	.db #0xff	; 255
      000039 01                    3148 	.db #0x01	; 1
      00003A FF                    3149 	.db #0xff	; 255
      00003B 81                    3150 	.db #0x81	; 129
      00003C FE                    3151 	.db #0xfe	; 254
      00003D 02                    3152 	.db #0x02	; 2
      00003E FC                    3153 	.db #0xfc	; 252
      00003F FC                    3154 	.db #0xfc	; 252
      000040                       3155 __xinit__Brick:
      000040 FF                    3156 	.db #0xff	; 255
      000041 FF                    3157 	.db #0xff	; 255
      000042 F7                    3158 	.db #0xf7	; 247
      000043 88                    3159 	.db #0x88	; 136
      000044 F7                    3160 	.db #0xf7	; 247
      000045 88                    3161 	.db #0x88	; 136
      000046 80                    3162 	.db #0x80	; 128
      000047 FF                    3163 	.db #0xff	; 255
      000048 FB                    3164 	.db #0xfb	; 251
      000049 84                    3165 	.db #0x84	; 132
      00004A FB                    3166 	.db #0xfb	; 251
      00004B 84                    3167 	.db #0x84	; 132
      00004C 80                    3168 	.db #0x80	; 128
      00004D FF                    3169 	.db #0xff	; 255
      00004E F7                    3170 	.db #0xf7	; 247
      00004F 88                    3171 	.db #0x88	; 136
      000050 F7                    3172 	.db #0xf7	; 247
      000051 88                    3173 	.db #0x88	; 136
      000052 80                    3174 	.db #0x80	; 128
      000053 FF                    3175 	.db #0xff	; 255
      000054 FB                    3176 	.db #0xfb	; 251
      000055 84                    3177 	.db #0x84	; 132
      000056 FB                    3178 	.db #0xfb	; 251
      000057 84                    3179 	.db #0x84	; 132
      000058 80                    3180 	.db #0x80	; 128
      000059 FF                    3181 	.db #0xff	; 255
      00005A FD                    3182 	.db #0xfd	; 253
      00005B 82                    3183 	.db #0x82	; 130
      00005C FD                    3184 	.db #0xfd	; 253
      00005D 82                    3185 	.db #0x82	; 130
      00005E FF                    3186 	.db #0xff	; 255
      00005F FF                    3187 	.db #0xff	; 255
      000060 FF                    3188 	.db #0xff	; 255
      000061 FF                    3189 	.db #0xff	; 255
      000062 BF                    3190 	.db #0xbf	; 191
      000063 41                    3191 	.db #0x41	; 65	'A'
      000064 BF                    3192 	.db #0xbf	; 191
      000065 41                    3193 	.db #0x41	; 65	'A'
      000066 01                    3194 	.db #0x01	; 1
      000067 FF                    3195 	.db #0xff	; 255
      000068 DF                    3196 	.db #0xdf	; 223
      000069 21                    3197 	.db #0x21	; 33
      00006A DF                    3198 	.db #0xdf	; 223
      00006B 21                    3199 	.db #0x21	; 33
      00006C 01                    3200 	.db #0x01	; 1
      00006D FF                    3201 	.db #0xff	; 255
      00006E BF                    3202 	.db #0xbf	; 191
      00006F 41                    3203 	.db #0x41	; 65	'A'
      000070 BF                    3204 	.db #0xbf	; 191
      000071 41                    3205 	.db #0x41	; 65	'A'
      000072 01                    3206 	.db #0x01	; 1
      000073 FF                    3207 	.db #0xff	; 255
      000074 EF                    3208 	.db #0xef	; 239
      000075 11                    3209 	.db #0x11	; 17
      000076 EF                    3210 	.db #0xef	; 239
      000077 11                    3211 	.db #0x11	; 17
      000078 01                    3212 	.db #0x01	; 1
      000079 FF                    3213 	.db #0xff	; 255
      00007A DF                    3214 	.db #0xdf	; 223
      00007B 21                    3215 	.db #0x21	; 33
      00007C DF                    3216 	.db #0xdf	; 223
      00007D 21                    3217 	.db #0x21	; 33
      00007E FF                    3218 	.db #0xff	; 255
      00007F FF                    3219 	.db #0xff	; 255
      000080 FF                    3220 	.db #0xff	; 255
      000081 FF                    3221 	.db #0xff	; 255
      000082 F7                    3222 	.db #0xf7	; 247
      000083 88                    3223 	.db #0x88	; 136
      000084 F7                    3224 	.db #0xf7	; 247
      000085 C8                    3225 	.db #0xc8	; 200
      000086 C0                    3226 	.db #0xc0	; 192
      000087 FF                    3227 	.db #0xff	; 255
      000088 3B                    3228 	.db #0x3b	; 59
      000089 24                    3229 	.db #0x24	; 36
      00008A 1B                    3230 	.db #0x1b	; 27
      00008B 14                    3231 	.db #0x14	; 20
      00008C F8                    3232 	.db #0xf8	; 248
      00008D FF                    3233 	.db #0xff	; 255
      00008E F7                    3234 	.db #0xf7	; 247
      00008F 8C                    3235 	.db #0x8c	; 140
      000090 F7                    3236 	.db #0xf7	; 247
      000091 88                    3237 	.db #0x88	; 136
      000092 80                    3238 	.db #0x80	; 128
      000093 FF                    3239 	.db #0xff	; 255
      000094 FB                    3240 	.db #0xfb	; 251
      000095 86                    3241 	.db #0x86	; 134
      000096 FF                    3242 	.db #0xff	; 255
      000097 8C                    3243 	.db #0x8c	; 140
      000098 B8                    3244 	.db #0xb8	; 184
      000099 FF                    3245 	.db #0xff	; 255
      00009A EF                    3246 	.db #0xef	; 239
      00009B E8                    3247 	.db #0xe8	; 232
      00009C 0F                    3248 	.db #0x0f	; 15
      00009D 08                    3249 	.db #0x08	; 8
      00009E 0F                    3250 	.db #0x0f	; 15
      00009F 0F                    3251 	.db #0x0f	; 15
      0000A0 FF                    3252 	.db #0xff	; 255
      0000A1 FF                    3253 	.db #0xff	; 255
      0000A2 BF                    3254 	.db #0xbf	; 191
      0000A3 41                    3255 	.db #0x41	; 65	'A'
      0000A4 BF                    3256 	.db #0xbf	; 191
      0000A5 47                    3257 	.db #0x47	; 71	'G'
      0000A6 0F                    3258 	.db #0x0f	; 15
      0000A7 FF                    3259 	.db #0xff	; 255
      0000A8 D0                    3260 	.db #0xd0	; 208
      0000A9 30                    3261 	.db #0x30	; 48	'0'
      0000AA EF                    3262 	.db #0xef	; 239
      0000AB 2F                    3263 	.db #0x2f	; 47
      0000AC 51                    3264 	.db #0x51	; 81	'Q'
      0000AD DF                    3265 	.db #0xdf	; 223
      0000AE FF                    3266 	.db #0xff	; 255
      0000AF 61                    3267 	.db #0x61	; 97	'a'
      0000B0 BF                    3268 	.db #0xbf	; 191
      0000B1 C1                    3269 	.db #0xc1	; 193
      0000B2 01                    3270 	.db #0x01	; 1
      0000B3 FF                    3271 	.db #0xff	; 255
      0000B4 EF                    3272 	.db #0xef	; 239
      0000B5 13                    3273 	.db #0x13	; 19
      0000B6 EC                    3274 	.db #0xec	; 236
      0000B7 1C                    3275 	.db #0x1c	; 28
      0000B8 18                    3276 	.db #0x18	; 24
      0000B9 F8                    3277 	.db #0xf8	; 248
      0000BA F0                    3278 	.db #0xf0	; 240
      0000BB 30                    3279 	.db #0x30	; 48	'0'
      0000BC E0                    3280 	.db #0xe0	; 224
      0000BD 60                    3281 	.db #0x60	; 96
      0000BE E0                    3282 	.db #0xe0	; 224
      0000BF E0                    3283 	.db #0xe0	; 224
      0000C0 FE                    3284 	.db #0xfe	; 254
      0000C1 FE                    3285 	.db #0xfe	; 254
      0000C2 F6                    3286 	.db #0xf6	; 246
      0000C3 8A                    3287 	.db #0x8a	; 138
      0000C4 F4                    3288 	.db #0xf4	; 244
      0000C5 8C                    3289 	.db #0x8c	; 140
      0000C6 C5                    3290 	.db #0xc5	; 197
      0000C7 FD                    3291 	.db #0xfd	; 253
      0000C8 3D                    3292 	.db #0x3d	; 61
      0000C9 25                    3293 	.db #0x25	; 37
      0000CA 1D                    3294 	.db #0x1d	; 29
      0000CB 15                    3295 	.db #0x15	; 21
      0000CC ED                    3296 	.db #0xed	; 237
      0000CD FD                    3297 	.db #0xfd	; 253
      0000CE F7                    3298 	.db #0xf7	; 247
      0000CF 8A                    3299 	.db #0x8a	; 138
      0000D0 FF                    3300 	.db #0xff	; 255
      0000D1 FB                    3301 	.db #0xfb	; 251
      0000D2 04                    3302 	.db #0x04	; 4
      0000D3 07                    3303 	.db #0x07	; 7
      0000D4 FF                    3304 	.db #0xff	; 255
      0000D5 FE                    3305 	.db #0xfe	; 254
      0000D6 FF                    3306 	.db #0xff	; 255
      0000D7 84                    3307 	.db #0x84	; 132
      0000D8 99                    3308 	.db #0x99	; 153
      0000D9 FF                    3309 	.db #0xff	; 255
      0000DA EF                    3310 	.db #0xef	; 239
      0000DB A9                    3311 	.db #0xa9	; 169
      0000DC CF                    3312 	.db #0xcf	; 207
      0000DD C9                    3313 	.db #0xc9	; 201
      0000DE 0F                    3314 	.db #0x0f	; 15
      0000DF 0F                    3315 	.db #0x0f	; 15
      0000E0 FF                    3316 	.db #0xff	; 255
      0000E1 FF                    3317 	.db #0xff	; 255
      0000E2 BF                    3318 	.db #0xbf	; 191
      0000E3 C1                    3319 	.db #0xc1	; 193
      0000E4 BF                    3320 	.db #0xbf	; 191
      0000E5 C7                    3321 	.db #0xc7	; 199
      0000E6 8F                    3322 	.db #0x8f	; 143
      0000E7 FF                    3323 	.db #0xff	; 255
      0000E8 D0                    3324 	.db #0xd0	; 208
      0000E9 30                    3325 	.db #0x30	; 48	'0'
      0000EA E7                    3326 	.db #0xe7	; 231
      0000EB 27                    3327 	.db #0x27	; 39
      0000EC 7D                    3328 	.db #0x7d	; 125
      0000ED FF                    3329 	.db #0xff	; 255
      0000EE B9                    3330 	.db #0xb9	; 185
      0000EF 59                    3331 	.db #0x59	; 89	'Y'
      0000F0 A1                    3332 	.db #0xa1	; 161
      0000F1 41                    3333 	.db #0x41	; 65	'A'
      0000F2 C1                    3334 	.db #0xc1	; 193
      0000F3 FF                    3335 	.db #0xff	; 255
      0000F4 AF                    3336 	.db #0xaf	; 175
      0000F5 B7                    3337 	.db #0xb7	; 183
      0000F6 AF                    3338 	.db #0xaf	; 175
      0000F7 BF                    3339 	.db #0xbf	; 191
      0000F8 78                    3340 	.db #0x78	; 120	'x'
      0000F9 78                    3341 	.db #0x78	; 120	'x'
      0000FA 70                    3342 	.db #0x70	; 112	'p'
      0000FB 70                    3343 	.db #0x70	; 112	'p'
      0000FC 60                    3344 	.db #0x60	; 96
      0000FD 60                    3345 	.db #0x60	; 96
      0000FE C0                    3346 	.db #0xc0	; 192
      0000FF C0                    3347 	.db #0xc0	; 192
      000100                       3348 __xinit__Stone:
      000100 FF                    3349 	.db #0xff	; 255
      000101 FF                    3350 	.db #0xff	; 255
      000102 FF                    3351 	.db #0xff	; 255
      000103 FF                    3352 	.db #0xff	; 255
      000104 DF                    3353 	.db #0xdf	; 223
      000105 E0                    3354 	.db #0xe0	; 224
      000106 EF                    3355 	.db #0xef	; 239
      000107 D0                    3356 	.db #0xd0	; 208
      000108 FF                    3357 	.db #0xff	; 255
      000109 CF                    3358 	.db #0xcf	; 207
      00010A FF                    3359 	.db #0xff	; 255
      00010B CF                    3360 	.db #0xcf	; 207
      00010C FC                    3361 	.db #0xfc	; 252
      00010D CF                    3362 	.db #0xcf	; 207
      00010E FC                    3363 	.db #0xfc	; 252
      00010F CF                    3364 	.db #0xcf	; 207
      000110 FC                    3365 	.db #0xfc	; 252
      000111 CF                    3366 	.db #0xcf	; 207
      000112 FC                    3367 	.db #0xfc	; 252
      000113 CF                    3368 	.db #0xcf	; 207
      000114 FF                    3369 	.db #0xff	; 255
      000115 CF                    3370 	.db #0xcf	; 207
      000116 FF                    3371 	.db #0xff	; 255
      000117 CF                    3372 	.db #0xcf	; 207
      000118 EF                    3373 	.db #0xef	; 239
      000119 D0                    3374 	.db #0xd0	; 208
      00011A DF                    3375 	.db #0xdf	; 223
      00011B E0                    3376 	.db #0xe0	; 224
      00011C FF                    3377 	.db #0xff	; 255
      00011D FF                    3378 	.db #0xff	; 255
      00011E FF                    3379 	.db #0xff	; 255
      00011F FF                    3380 	.db #0xff	; 255
      000120 FF                    3381 	.db #0xff	; 255
      000121 FF                    3382 	.db #0xff	; 255
      000122 FF                    3383 	.db #0xff	; 255
      000123 FF                    3384 	.db #0xff	; 255
      000124 FB                    3385 	.db #0xfb	; 251
      000125 07                    3386 	.db #0x07	; 7
      000126 F7                    3387 	.db #0xf7	; 247
      000127 0B                    3388 	.db #0x0b	; 11
      000128 FF                    3389 	.db #0xff	; 255
      000129 F3                    3390 	.db #0xf3	; 243
      00012A FF                    3391 	.db #0xff	; 255
      00012B F3                    3392 	.db #0xf3	; 243
      00012C 3F                    3393 	.db #0x3f	; 63
      00012D F3                    3394 	.db #0xf3	; 243
      00012E 3F                    3395 	.db #0x3f	; 63
      00012F F3                    3396 	.db #0xf3	; 243
      000130 3F                    3397 	.db #0x3f	; 63
      000131 F3                    3398 	.db #0xf3	; 243
      000132 3F                    3399 	.db #0x3f	; 63
      000133 F3                    3400 	.db #0xf3	; 243
      000134 FF                    3401 	.db #0xff	; 255
      000135 F3                    3402 	.db #0xf3	; 243
      000136 FF                    3403 	.db #0xff	; 255
      000137 F3                    3404 	.db #0xf3	; 243
      000138 F7                    3405 	.db #0xf7	; 247
      000139 0B                    3406 	.db #0x0b	; 11
      00013A FB                    3407 	.db #0xfb	; 251
      00013B 07                    3408 	.db #0x07	; 7
      00013C FF                    3409 	.db #0xff	; 255
      00013D FF                    3410 	.db #0xff	; 255
      00013E FF                    3411 	.db #0xff	; 255
      00013F FF                    3412 	.db #0xff	; 255
      000140                       3413 __xinit__BG:
      000140 00                    3414 	.db #0x00	; 0
      000141 00                    3415 	.db #0x00	; 0
      000142 00                    3416 	.db #0x00	; 0
      000143 00                    3417 	.db #0x00	; 0
      000144 00                    3418 	.db #0x00	; 0
      000145 00                    3419 	.db #0x00	; 0
      000146 00                    3420 	.db #0x00	; 0
      000147 00                    3421 	.db #0x00	; 0
      000148 00                    3422 	.db #0x00	; 0
      000149 00                    3423 	.db #0x00	; 0
      00014A 00                    3424 	.db #0x00	; 0
      00014B 00                    3425 	.db #0x00	; 0
      00014C 00                    3426 	.db #0x00	; 0
      00014D 00                    3427 	.db #0x00	; 0
      00014E 00                    3428 	.db #0x00	; 0
      00014F 00                    3429 	.db #0x00	; 0
      000150 00                    3430 	.db #0x00	; 0
      000151 00                    3431 	.db #0x00	; 0
      000152 00                    3432 	.db #0x00	; 0
      000153 00                    3433 	.db #0x00	; 0
      000154 00                    3434 	.db #0x00	; 0
      000155 00                    3435 	.db #0x00	; 0
      000156 01                    3436 	.db #0x01	; 1
      000157 02                    3437 	.db #0x02	; 2
      000158 03                    3438 	.db #0x03	; 3
      000159 02                    3439 	.db #0x02	; 2
      00015A 01                    3440 	.db #0x01	; 1
      00015B 04                    3441 	.db #0x04	; 4
      00015C 00                    3442 	.db #0x00	; 0
      00015D 00                    3443 	.db #0x00	; 0
      00015E 00                    3444 	.db #0x00	; 0
      00015F 00                    3445 	.db #0x00	; 0
      000160 00                    3446 	.db #0x00	; 0
      000161 00                    3447 	.db #0x00	; 0
      000162 00                    3448 	.db #0x00	; 0
      000163 00                    3449 	.db #0x00	; 0
      000164 00                    3450 	.db #0x00	; 0
      000165 00                    3451 	.db #0x00	; 0
      000166 00                    3452 	.db #0x00	; 0
      000167 00                    3453 	.db #0x00	; 0
      000168 00                    3454 	.db #0x00	; 0
      000169 00                    3455 	.db #0x00	; 0
      00016A 00                    3456 	.db #0x00	; 0
      00016B 00                    3457 	.db #0x00	; 0
      00016C 00                    3458 	.db #0x00	; 0
      00016D 00                    3459 	.db #0x00	; 0
      00016E 00                    3460 	.db #0x00	; 0
      00016F 00                    3461 	.db #0x00	; 0
      000170 00                    3462 	.db #0x00	; 0
      000171 00                    3463 	.db #0x00	; 0
      000172 00                    3464 	.db #0x00	; 0
      000173 00                    3465 	.db #0x00	; 0
      000174 00                    3466 	.db #0x00	; 0
      000175 00                    3467 	.db #0x00	; 0
      000176 00                    3468 	.db #0x00	; 0
      000177 00                    3469 	.db #0x00	; 0
      000178 00                    3470 	.db #0x00	; 0
      000179 00                    3471 	.db #0x00	; 0
      00017A 00                    3472 	.db #0x00	; 0
      00017B 00                    3473 	.db #0x00	; 0
      00017C 00                    3474 	.db #0x00	; 0
      00017D 00                    3475 	.db #0x00	; 0
      00017E 02                    3476 	.db #0x02	; 2
      00017F 05                    3477 	.db #0x05	; 5
      000180 06                    3478 	.db #0x06	; 6
      000181 04                    3479 	.db #0x04	; 4
      000182 00                    3480 	.db #0x00	; 0
      000183 00                    3481 	.db #0x00	; 0
      000184 00                    3482 	.db #0x00	; 0
      000185 00                    3483 	.db #0x00	; 0
      000186 13                    3484 	.db #0x13	; 19
      000187 00                    3485 	.db #0x00	; 0
      000188 00                    3486 	.db #0x00	; 0
      000189 00                    3487 	.db #0x00	; 0
      00018A 00                    3488 	.db #0x00	; 0
      00018B 00                    3489 	.db #0x00	; 0
      00018C 00                    3490 	.db #0x00	; 0
      00018D 00                    3491 	.db #0x00	; 0
      00018E 00                    3492 	.db #0x00	; 0
      00018F 00                    3493 	.db #0x00	; 0
      000190 00                    3494 	.db #0x00	; 0
      000191 00                    3495 	.db #0x00	; 0
      000192 00                    3496 	.db #0x00	; 0
      000193 00                    3497 	.db #0x00	; 0
      000194 00                    3498 	.db #0x00	; 0
      000195 00                    3499 	.db #0x00	; 0
      000196 00                    3500 	.db #0x00	; 0
      000197 00                    3501 	.db #0x00	; 0
      000198 00                    3502 	.db #0x00	; 0
      000199 00                    3503 	.db #0x00	; 0
      00019A 00                    3504 	.db #0x00	; 0
      00019B 00                    3505 	.db #0x00	; 0
      00019C 00                    3506 	.db #0x00	; 0
      00019D 00                    3507 	.db #0x00	; 0
      00019E 00                    3508 	.db #0x00	; 0
      00019F 00                    3509 	.db #0x00	; 0
      0001A0 00                    3510 	.db #0x00	; 0
      0001A1 00                    3511 	.db #0x00	; 0
      0001A2 00                    3512 	.db #0x00	; 0
      0001A3 00                    3513 	.db #0x00	; 0
      0001A4 00                    3514 	.db #0x00	; 0
      0001A5 00                    3515 	.db #0x00	; 0
      0001A6 07                    3516 	.db #0x07	; 7
      0001A7 08                    3517 	.db #0x08	; 8
      0001A8 09                    3518 	.db #0x09	; 9
      0001A9 02                    3519 	.db #0x02	; 2
      0001AA 0A                    3520 	.db #0x0a	; 10
      0001AB 04                    3521 	.db #0x04	; 4
      0001AC 00                    3522 	.db #0x00	; 0
      0001AD 00                    3523 	.db #0x00	; 0
      0001AE 00                    3524 	.db #0x00	; 0
      0001AF 00                    3525 	.db #0x00	; 0
      0001B0 00                    3526 	.db #0x00	; 0
      0001B1 00                    3527 	.db #0x00	; 0
      0001B2 00                    3528 	.db #0x00	; 0
      0001B3 00                    3529 	.db #0x00	; 0
      0001B4 00                    3530 	.db #0x00	; 0
      0001B5 00                    3531 	.db #0x00	; 0
      0001B6 00                    3532 	.db #0x00	; 0
      0001B7 00                    3533 	.db #0x00	; 0
      0001B8 00                    3534 	.db #0x00	; 0
      0001B9 00                    3535 	.db #0x00	; 0
      0001BA 00                    3536 	.db #0x00	; 0
      0001BB 00                    3537 	.db #0x00	; 0
      0001BC 00                    3538 	.db #0x00	; 0
      0001BD 00                    3539 	.db #0x00	; 0
      0001BE 00                    3540 	.db #0x00	; 0
      0001BF 00                    3541 	.db #0x00	; 0
      0001C0 00                    3542 	.db #0x00	; 0
      0001C1 00                    3543 	.db #0x00	; 0
      0001C2 00                    3544 	.db #0x00	; 0
      0001C3 00                    3545 	.db #0x00	; 0
      0001C4 00                    3546 	.db #0x00	; 0
      0001C5 00                    3547 	.db #0x00	; 0
      0001C6 00                    3548 	.db #0x00	; 0
      0001C7 00                    3549 	.db #0x00	; 0
      0001C8 00                    3550 	.db #0x00	; 0
      0001C9 00                    3551 	.db #0x00	; 0
      0001CA 00                    3552 	.db #0x00	; 0
      0001CB 00                    3553 	.db #0x00	; 0
      0001CC 00                    3554 	.db #0x00	; 0
      0001CD 0C                    3555 	.db #0x0c	; 12
      0001CE 0D                    3556 	.db #0x0d	; 13
      0001CF 0D                    3557 	.db #0x0d	; 13
      0001D0 0D                    3558 	.db #0x0d	; 13
      0001D1 0D                    3559 	.db #0x0d	; 13
      0001D2 0D                    3560 	.db #0x0d	; 13
      0001D3 0D                    3561 	.db #0x0d	; 13
      0001D4 0D                    3562 	.db #0x0d	; 13
      0001D5 0D                    3563 	.db #0x0d	; 13
      0001D6 0D                    3564 	.db #0x0d	; 13
      0001D7 0D                    3565 	.db #0x0d	; 13
      0001D8 0D                    3566 	.db #0x0d	; 13
      0001D9 0D                    3567 	.db #0x0d	; 13
      0001DA 0D                    3568 	.db #0x0d	; 13
      0001DB 0D                    3569 	.db #0x0d	; 13
      0001DC 0D                    3570 	.db #0x0d	; 13
      0001DD 0D                    3571 	.db #0x0d	; 13
      0001DE 0E                    3572 	.db #0x0e	; 14
      0001DF 00                    3573 	.db #0x00	; 0
      0001E0 00                    3574 	.db #0x00	; 0
      0001E1 0B                    3575 	.db #0x0b	; 11
      0001E2 00                    3576 	.db #0x00	; 0
      0001E3 00                    3577 	.db #0x00	; 0
      0001E4 00                    3578 	.db #0x00	; 0
      0001E5 00                    3579 	.db #0x00	; 0
      0001E6 00                    3580 	.db #0x00	; 0
      0001E7 00                    3581 	.db #0x00	; 0
      0001E8 00                    3582 	.db #0x00	; 0
      0001E9 00                    3583 	.db #0x00	; 0
      0001EA 00                    3584 	.db #0x00	; 0
      0001EB 00                    3585 	.db #0x00	; 0
      0001EC 00                    3586 	.db #0x00	; 0
      0001ED 00                    3587 	.db #0x00	; 0
      0001EE 00                    3588 	.db #0x00	; 0
      0001EF 00                    3589 	.db #0x00	; 0
      0001F0 00                    3590 	.db #0x00	; 0
      0001F1 00                    3591 	.db #0x00	; 0
      0001F2 0F                    3592 	.db #0x0f	; 15
      0001F3 00                    3593 	.db #0x00	; 0
      0001F4 00                    3594 	.db #0x00	; 0
      0001F5 0B                    3595 	.db #0x0b	; 11
      0001F6 00                    3596 	.db #0x00	; 0
      0001F7 00                    3597 	.db #0x00	; 0
      0001F8 00                    3598 	.db #0x00	; 0
      0001F9 00                    3599 	.db #0x00	; 0
      0001FA 00                    3600 	.db #0x00	; 0
      0001FB 00                    3601 	.db #0x00	; 0
      0001FC 00                    3602 	.db #0x00	; 0
      0001FD 00                    3603 	.db #0x00	; 0
      0001FE 00                    3604 	.db #0x00	; 0
      0001FF 00                    3605 	.db #0x00	; 0
      000200 00                    3606 	.db #0x00	; 0
      000201 00                    3607 	.db #0x00	; 0
      000202 00                    3608 	.db #0x00	; 0
      000203 00                    3609 	.db #0x00	; 0
      000204 00                    3610 	.db #0x00	; 0
      000205 00                    3611 	.db #0x00	; 0
      000206 0F                    3612 	.db #0x0f	; 15
      000207 00                    3613 	.db #0x00	; 0
      000208 00                    3614 	.db #0x00	; 0
      000209 0B                    3615 	.db #0x0b	; 11
      00020A 00                    3616 	.db #0x00	; 0
      00020B 00                    3617 	.db #0x00	; 0
      00020C 00                    3618 	.db #0x00	; 0
      00020D 00                    3619 	.db #0x00	; 0
      00020E 00                    3620 	.db #0x00	; 0
      00020F 00                    3621 	.db #0x00	; 0
      000210 00                    3622 	.db #0x00	; 0
      000211 00                    3623 	.db #0x00	; 0
      000212 00                    3624 	.db #0x00	; 0
      000213 00                    3625 	.db #0x00	; 0
      000214 00                    3626 	.db #0x00	; 0
      000215 00                    3627 	.db #0x00	; 0
      000216 00                    3628 	.db #0x00	; 0
      000217 00                    3629 	.db #0x00	; 0
      000218 00                    3630 	.db #0x00	; 0
      000219 00                    3631 	.db #0x00	; 0
      00021A 0F                    3632 	.db #0x0f	; 15
      00021B 00                    3633 	.db #0x00	; 0
      00021C 00                    3634 	.db #0x00	; 0
      00021D 0B                    3635 	.db #0x0b	; 11
      00021E 00                    3636 	.db #0x00	; 0
      00021F 00                    3637 	.db #0x00	; 0
      000220 00                    3638 	.db #0x00	; 0
      000221 00                    3639 	.db #0x00	; 0
      000222 00                    3640 	.db #0x00	; 0
      000223 00                    3641 	.db #0x00	; 0
      000224 00                    3642 	.db #0x00	; 0
      000225 00                    3643 	.db #0x00	; 0
      000226 00                    3644 	.db #0x00	; 0
      000227 00                    3645 	.db #0x00	; 0
      000228 00                    3646 	.db #0x00	; 0
      000229 00                    3647 	.db #0x00	; 0
      00022A 00                    3648 	.db #0x00	; 0
      00022B 00                    3649 	.db #0x00	; 0
      00022C 00                    3650 	.db #0x00	; 0
      00022D 00                    3651 	.db #0x00	; 0
      00022E 0F                    3652 	.db #0x0f	; 15
      00022F 00                    3653 	.db #0x00	; 0
      000230 00                    3654 	.db #0x00	; 0
      000231 0B                    3655 	.db #0x0b	; 11
      000232 00                    3656 	.db #0x00	; 0
      000233 00                    3657 	.db #0x00	; 0
      000234 00                    3658 	.db #0x00	; 0
      000235 00                    3659 	.db #0x00	; 0
      000236 00                    3660 	.db #0x00	; 0
      000237 00                    3661 	.db #0x00	; 0
      000238 00                    3662 	.db #0x00	; 0
      000239 00                    3663 	.db #0x00	; 0
      00023A 00                    3664 	.db #0x00	; 0
      00023B 00                    3665 	.db #0x00	; 0
      00023C 00                    3666 	.db #0x00	; 0
      00023D 00                    3667 	.db #0x00	; 0
      00023E 00                    3668 	.db #0x00	; 0
      00023F 00                    3669 	.db #0x00	; 0
      000240 00                    3670 	.db #0x00	; 0
      000241 00                    3671 	.db #0x00	; 0
      000242 0F                    3672 	.db #0x0f	; 15
      000243 00                    3673 	.db #0x00	; 0
      000244 00                    3674 	.db #0x00	; 0
      000245 0B                    3675 	.db #0x0b	; 11
      000246 00                    3676 	.db #0x00	; 0
      000247 00                    3677 	.db #0x00	; 0
      000248 00                    3678 	.db #0x00	; 0
      000249 00                    3679 	.db #0x00	; 0
      00024A 00                    3680 	.db #0x00	; 0
      00024B 00                    3681 	.db #0x00	; 0
      00024C 00                    3682 	.db #0x00	; 0
      00024D 00                    3683 	.db #0x00	; 0
      00024E 00                    3684 	.db #0x00	; 0
      00024F 00                    3685 	.db #0x00	; 0
      000250 00                    3686 	.db #0x00	; 0
      000251 00                    3687 	.db #0x00	; 0
      000252 00                    3688 	.db #0x00	; 0
      000253 00                    3689 	.db #0x00	; 0
      000254 00                    3690 	.db #0x00	; 0
      000255 00                    3691 	.db #0x00	; 0
      000256 0F                    3692 	.db #0x0f	; 15
      000257 00                    3693 	.db #0x00	; 0
      000258 00                    3694 	.db #0x00	; 0
      000259 0B                    3695 	.db #0x0b	; 11
      00025A 00                    3696 	.db #0x00	; 0
      00025B 00                    3697 	.db #0x00	; 0
      00025C 00                    3698 	.db #0x00	; 0
      00025D 00                    3699 	.db #0x00	; 0
      00025E 00                    3700 	.db #0x00	; 0
      00025F 00                    3701 	.db #0x00	; 0
      000260 00                    3702 	.db #0x00	; 0
      000261 00                    3703 	.db #0x00	; 0
      000262 00                    3704 	.db #0x00	; 0
      000263 00                    3705 	.db #0x00	; 0
      000264 00                    3706 	.db #0x00	; 0
      000265 00                    3707 	.db #0x00	; 0
      000266 00                    3708 	.db #0x00	; 0
      000267 00                    3709 	.db #0x00	; 0
      000268 00                    3710 	.db #0x00	; 0
      000269 00                    3711 	.db #0x00	; 0
      00026A 0F                    3712 	.db #0x0f	; 15
      00026B 00                    3713 	.db #0x00	; 0
      00026C 00                    3714 	.db #0x00	; 0
      00026D 0B                    3715 	.db #0x0b	; 11
      00026E 00                    3716 	.db #0x00	; 0
      00026F 00                    3717 	.db #0x00	; 0
      000270 00                    3718 	.db #0x00	; 0
      000271 00                    3719 	.db #0x00	; 0
      000272 00                    3720 	.db #0x00	; 0
      000273 00                    3721 	.db #0x00	; 0
      000274 00                    3722 	.db #0x00	; 0
      000275 00                    3723 	.db #0x00	; 0
      000276 00                    3724 	.db #0x00	; 0
      000277 00                    3725 	.db #0x00	; 0
      000278 00                    3726 	.db #0x00	; 0
      000279 00                    3727 	.db #0x00	; 0
      00027A 00                    3728 	.db #0x00	; 0
      00027B 00                    3729 	.db #0x00	; 0
      00027C 00                    3730 	.db #0x00	; 0
      00027D 00                    3731 	.db #0x00	; 0
      00027E 0F                    3732 	.db #0x0f	; 15
      00027F 00                    3733 	.db #0x00	; 0
      000280 00                    3734 	.db #0x00	; 0
      000281 12                    3735 	.db #0x12	; 18
      000282 11                    3736 	.db #0x11	; 17
      000283 11                    3737 	.db #0x11	; 17
      000284 11                    3738 	.db #0x11	; 17
      000285 11                    3739 	.db #0x11	; 17
      000286 11                    3740 	.db #0x11	; 17
      000287 11                    3741 	.db #0x11	; 17
      000288 11                    3742 	.db #0x11	; 17
      000289 11                    3743 	.db #0x11	; 17
      00028A 11                    3744 	.db #0x11	; 17
      00028B 11                    3745 	.db #0x11	; 17
      00028C 11                    3746 	.db #0x11	; 17
      00028D 11                    3747 	.db #0x11	; 17
      00028E 11                    3748 	.db #0x11	; 17
      00028F 11                    3749 	.db #0x11	; 17
      000290 11                    3750 	.db #0x11	; 17
      000291 11                    3751 	.db #0x11	; 17
      000292 10                    3752 	.db #0x10	; 16
      000293 00                    3753 	.db #0x00	; 0
      000294 00                    3754 	.db #0x00	; 0
      000295 00                    3755 	.db #0x00	; 0
      000296 00                    3756 	.db #0x00	; 0
      000297 00                    3757 	.db #0x00	; 0
      000298 00                    3758 	.db #0x00	; 0
      000299 00                    3759 	.db #0x00	; 0
      00029A 00                    3760 	.db #0x00	; 0
      00029B 00                    3761 	.db #0x00	; 0
      00029C 00                    3762 	.db #0x00	; 0
      00029D 00                    3763 	.db #0x00	; 0
      00029E 00                    3764 	.db #0x00	; 0
      00029F 00                    3765 	.db #0x00	; 0
      0002A0 00                    3766 	.db #0x00	; 0
      0002A1 00                    3767 	.db #0x00	; 0
      0002A2 00                    3768 	.db #0x00	; 0
      0002A3 00                    3769 	.db #0x00	; 0
      0002A4 00                    3770 	.db #0x00	; 0
      0002A5 00                    3771 	.db #0x00	; 0
      0002A6 00                    3772 	.db #0x00	; 0
      0002A7 00                    3773 	.db #0x00	; 0
      0002A8                       3774 __xinit__HUD:
      0002A8 00                    3775 	.db #0x00	; 0
      0002A9 00                    3776 	.db #0x00	; 0
      0002AA 00                    3777 	.db #0x00	; 0
      0002AB 00                    3778 	.db #0x00	; 0
      0002AC 00                    3779 	.db #0x00	; 0
      0002AD 00                    3780 	.db #0x00	; 0
      0002AE 00                    3781 	.db #0x00	; 0
      0002AF 00                    3782 	.db #0x00	; 0
      0002B0 00                    3783 	.db #0x00	; 0
      0002B1 00                    3784 	.db #0x00	; 0
      0002B2 00                    3785 	.db #0x00	; 0
      0002B3 00                    3786 	.db #0x00	; 0
      0002B4 00                    3787 	.db #0x00	; 0
      0002B5 00                    3788 	.db #0x00	; 0
      0002B6 00                    3789 	.db #0x00	; 0
      0002B7 00                    3790 	.db #0x00	; 0
      0002B8 00                    3791 	.db #0x00	; 0
      0002B9 00                    3792 	.db #0x00	; 0
      0002BA 10                    3793 	.db #0x10	; 16
      0002BB 10                    3794 	.db #0x10	; 16
      0002BC 10                    3795 	.db #0x10	; 16
      0002BD 10                    3796 	.db #0x10	; 16
      0002BE 10                    3797 	.db #0x10	; 16
      0002BF 10                    3798 	.db #0x10	; 16
      0002C0 10                    3799 	.db #0x10	; 16
      0002C1 10                    3800 	.db #0x10	; 16
      0002C2 10                    3801 	.db #0x10	; 16
      0002C3 10                    3802 	.db #0x10	; 16
      0002C4 08                    3803 	.db #0x08	; 8
      0002C5 08                    3804 	.db #0x08	; 8
      0002C6 00                    3805 	.db #0x00	; 0
      0002C7 00                    3806 	.db #0x00	; 0
      0002C8 00                    3807 	.db #0x00	; 0
      0002C9 00                    3808 	.db #0x00	; 0
      0002CA 00                    3809 	.db #0x00	; 0
      0002CB 00                    3810 	.db #0x00	; 0
      0002CC 1C                    3811 	.db #0x1c	; 28
      0002CD 1C                    3812 	.db #0x1c	; 28
      0002CE 22                    3813 	.db #0x22	; 34
      0002CF 22                    3814 	.db #0x22	; 34
      0002D0 3E                    3815 	.db #0x3e	; 62
      0002D1 3E                    3816 	.db #0x3e	; 62
      0002D2 20                    3817 	.db #0x20	; 32
      0002D3 20                    3818 	.db #0x20	; 32
      0002D4 1E                    3819 	.db #0x1e	; 30
      0002D5 1E                    3820 	.db #0x1e	; 30
      0002D6 00                    3821 	.db #0x00	; 0
      0002D7 00                    3822 	.db #0x00	; 0
      0002D8 00                    3823 	.db #0x00	; 0
      0002D9 00                    3824 	.db #0x00	; 0
      0002DA 00                    3825 	.db #0x00	; 0
      0002DB 00                    3826 	.db #0x00	; 0
      0002DC 22                    3827 	.db #0x22	; 34
      0002DD 22                    3828 	.db #0x22	; 34
      0002DE 22                    3829 	.db #0x22	; 34
      0002DF 22                    3830 	.db #0x22	; 34
      0002E0 22                    3831 	.db #0x22	; 34
      0002E1 22                    3832 	.db #0x22	; 34
      0002E2 14                    3833 	.db #0x14	; 20
      0002E3 14                    3834 	.db #0x14	; 20
      0002E4 08                    3835 	.db #0x08	; 8
      0002E5 08                    3836 	.db #0x08	; 8
      0002E6 00                    3837 	.db #0x00	; 0
      0002E7 00                    3838 	.db #0x00	; 0
      0002E8 00                    3839 	.db #0x00	; 0
      0002E9 00                    3840 	.db #0x00	; 0
      0002EA 10                    3841 	.db #0x10	; 16
      0002EB 10                    3842 	.db #0x10	; 16
      0002EC 10                    3843 	.db #0x10	; 16
      0002ED 10                    3844 	.db #0x10	; 16
      0002EE 00                    3845 	.db #0x00	; 0
      0002EF 00                    3846 	.db #0x00	; 0
      0002F0 00                    3847 	.db #0x00	; 0
      0002F1 00                    3848 	.db #0x00	; 0
      0002F2 10                    3849 	.db #0x10	; 16
      0002F3 10                    3850 	.db #0x10	; 16
      0002F4 10                    3851 	.db #0x10	; 16
      0002F5 10                    3852 	.db #0x10	; 16
      0002F6 00                    3853 	.db #0x00	; 0
      0002F7 00                    3854 	.db #0x00	; 0
      0002F8 00                    3855 	.db #0x00	; 0
      0002F9 00                    3856 	.db #0x00	; 0
      0002FA 00                    3857 	.db #0x00	; 0
      0002FB 00                    3858 	.db #0x00	; 0
      0002FC 22                    3859 	.db #0x22	; 34
      0002FD 22                    3860 	.db #0x22	; 34
      0002FE 14                    3861 	.db #0x14	; 20
      0002FF 14                    3862 	.db #0x14	; 20
      000300 08                    3863 	.db #0x08	; 8
      000301 08                    3864 	.db #0x08	; 8
      000302 14                    3865 	.db #0x14	; 20
      000303 14                    3866 	.db #0x14	; 20
      000304 22                    3867 	.db #0x22	; 34
      000305 22                    3868 	.db #0x22	; 34
      000306 00                    3869 	.db #0x00	; 0
      000307 00                    3870 	.db #0x00	; 0
      000308 00                    3871 	.db #0x00	; 0
      000309 00                    3872 	.db #0x00	; 0
      00030A 00                    3873 	.db #0x00	; 0
      00030B 00                    3874 	.db #0x00	; 0
      00030C 2C                    3875 	.db #0x2c	; 44
      00030D 2C                    3876 	.db #0x2c	; 44
      00030E 32                    3877 	.db #0x32	; 50	'2'
      00030F 32                    3878 	.db #0x32	; 50	'2'
      000310 22                    3879 	.db #0x22	; 34
      000311 22                    3880 	.db #0x22	; 34
      000312 3C                    3881 	.db #0x3c	; 60
      000313 3C                    3882 	.db #0x3c	; 60
      000314 20                    3883 	.db #0x20	; 32
      000315 20                    3884 	.db #0x20	; 32
      000316 20                    3885 	.db #0x20	; 32
      000317 20                    3886 	.db #0x20	; 32
      000318 00                    3887 	.db #0x00	; 0
      000319 00                    3888 	.db #0x00	; 0
      00031A 00                    3889 	.db #0x00	; 0
      00031B 00                    3890 	.db #0x00	; 0
      00031C 22                    3891 	.db #0x22	; 34
      00031D 22                    3892 	.db #0x22	; 34
      00031E 22                    3893 	.db #0x22	; 34
      00031F 22                    3894 	.db #0x22	; 34
      000320 2A                    3895 	.db #0x2a	; 42
      000321 2A                    3896 	.db #0x2a	; 42
      000322 2A                    3897 	.db #0x2a	; 42
      000323 2A                    3898 	.db #0x2a	; 42
      000324 1E                    3899 	.db #0x1e	; 30
      000325 1E                    3900 	.db #0x1e	; 30
      000326 00                    3901 	.db #0x00	; 0
      000327 00                    3902 	.db #0x00	; 0
      000328 00                    3903 	.db #0x00	; 0
      000329 00                    3904 	.db #0x00	; 0
      00032A 00                    3905 	.db #0x00	; 0
      00032B 00                    3906 	.db #0x00	; 0
      00032C 1C                    3907 	.db #0x1c	; 28
      00032D 1C                    3908 	.db #0x1c	; 28
      00032E 02                    3909 	.db #0x02	; 2
      00032F 02                    3910 	.db #0x02	; 2
      000330 1E                    3911 	.db #0x1e	; 30
      000331 1E                    3912 	.db #0x1e	; 30
      000332 22                    3913 	.db #0x22	; 34
      000333 22                    3914 	.db #0x22	; 34
      000334 1E                    3915 	.db #0x1e	; 30
      000335 1E                    3916 	.db #0x1e	; 30
      000336 00                    3917 	.db #0x00	; 0
      000337 00                    3918 	.db #0x00	; 0
      000338 00                    3919 	.db #0x00	; 0
      000339 00                    3920 	.db #0x00	; 0
      00033A 10                    3921 	.db #0x10	; 16
      00033B 10                    3922 	.db #0x10	; 16
      00033C 10                    3923 	.db #0x10	; 16
      00033D 10                    3924 	.db #0x10	; 16
      00033E 38                    3925 	.db #0x38	; 56	'8'
      00033F 38                    3926 	.db #0x38	; 56	'8'
      000340 10                    3927 	.db #0x10	; 16
      000341 10                    3928 	.db #0x10	; 16
      000342 10                    3929 	.db #0x10	; 16
      000343 10                    3930 	.db #0x10	; 16
      000344 08                    3931 	.db #0x08	; 8
      000345 08                    3932 	.db #0x08	; 8
      000346 00                    3933 	.db #0x00	; 0
      000347 00                    3934 	.db #0x00	; 0
      000348 00                    3935 	.db #0x00	; 0
      000349 00                    3936 	.db #0x00	; 0
      00034A 00                    3937 	.db #0x00	; 0
      00034B 00                    3938 	.db #0x00	; 0
      00034C 2C                    3939 	.db #0x2c	; 44
      00034D 2C                    3940 	.db #0x2c	; 44
      00034E 32                    3941 	.db #0x32	; 50	'2'
      00034F 32                    3942 	.db #0x32	; 50	'2'
      000350 20                    3943 	.db #0x20	; 32
      000351 20                    3944 	.db #0x20	; 32
      000352 20                    3945 	.db #0x20	; 32
      000353 20                    3946 	.db #0x20	; 32
      000354 20                    3947 	.db #0x20	; 32
      000355 20                    3948 	.db #0x20	; 32
      000356 00                    3949 	.db #0x00	; 0
      000357 00                    3950 	.db #0x00	; 0
      000358 03                    3951 	.db #0x03	; 3
      000359 03                    3952 	.db #0x03	; 3
      00035A 03                    3953 	.db #0x03	; 3
      00035B 03                    3954 	.db #0x03	; 3
      00035C 03                    3955 	.db #0x03	; 3
      00035D 03                    3956 	.db #0x03	; 3
      00035E 03                    3957 	.db #0x03	; 3
      00035F 03                    3958 	.db #0x03	; 3
      000360 03                    3959 	.db #0x03	; 3
      000361 03                    3960 	.db #0x03	; 3
      000362 03                    3961 	.db #0x03	; 3
      000363 03                    3962 	.db #0x03	; 3
      000364 03                    3963 	.db #0x03	; 3
      000365 03                    3964 	.db #0x03	; 3
      000366 03                    3965 	.db #0x03	; 3
      000367 03                    3966 	.db #0x03	; 3
      000368 00                    3967 	.db #0x00	; 0
      000369 00                    3968 	.db #0x00	; 0
      00036A 00                    3969 	.db #0x00	; 0
      00036B 00                    3970 	.db #0x00	; 0
      00036C 00                    3971 	.db #0x00	; 0
      00036D 00                    3972 	.db #0x00	; 0
      00036E 00                    3973 	.db #0x00	; 0
      00036F 00                    3974 	.db #0x00	; 0
      000370 00                    3975 	.db #0x00	; 0
      000371 00                    3976 	.db #0x00	; 0
      000372 00                    3977 	.db #0x00	; 0
      000373 00                    3978 	.db #0x00	; 0
      000374 03                    3979 	.db #0x03	; 3
      000375 03                    3980 	.db #0x03	; 3
      000376 03                    3981 	.db #0x03	; 3
      000377 03                    3982 	.db #0x03	; 3
      000378 00                    3983 	.db #0x00	; 0
      000379 00                    3984 	.db #0x00	; 0
      00037A 00                    3985 	.db #0x00	; 0
      00037B 00                    3986 	.db #0x00	; 0
      00037C 00                    3987 	.db #0x00	; 0
      00037D 00                    3988 	.db #0x00	; 0
      00037E 00                    3989 	.db #0x00	; 0
      00037F 00                    3990 	.db #0x00	; 0
      000380 00                    3991 	.db #0x00	; 0
      000381 00                    3992 	.db #0x00	; 0
      000382 00                    3993 	.db #0x00	; 0
      000383 00                    3994 	.db #0x00	; 0
      000384 FF                    3995 	.db #0xff	; 255
      000385 FF                    3996 	.db #0xff	; 255
      000386 FF                    3997 	.db #0xff	; 255
      000387 FF                    3998 	.db #0xff	; 255
      000388 00                    3999 	.db #0x00	; 0
      000389 00                    4000 	.db #0x00	; 0
      00038A 00                    4001 	.db #0x00	; 0
      00038B 00                    4002 	.db #0x00	; 0
      00038C 00                    4003 	.db #0x00	; 0
      00038D 00                    4004 	.db #0x00	; 0
      00038E 00                    4005 	.db #0x00	; 0
      00038F 00                    4006 	.db #0x00	; 0
      000390 00                    4007 	.db #0x00	; 0
      000391 00                    4008 	.db #0x00	; 0
      000392 00                    4009 	.db #0x00	; 0
      000393 00                    4010 	.db #0x00	; 0
      000394 C0                    4011 	.db #0xc0	; 192
      000395 C0                    4012 	.db #0xc0	; 192
      000396 C0                    4013 	.db #0xc0	; 192
      000397 C0                    4014 	.db #0xc0	; 192
      000398 C0                    4015 	.db #0xc0	; 192
      000399 C0                    4016 	.db #0xc0	; 192
      00039A C0                    4017 	.db #0xc0	; 192
      00039B C0                    4018 	.db #0xc0	; 192
      00039C C0                    4019 	.db #0xc0	; 192
      00039D C0                    4020 	.db #0xc0	; 192
      00039E C0                    4021 	.db #0xc0	; 192
      00039F C0                    4022 	.db #0xc0	; 192
      0003A0 C0                    4023 	.db #0xc0	; 192
      0003A1 C0                    4024 	.db #0xc0	; 192
      0003A2 C0                    4025 	.db #0xc0	; 192
      0003A3 C0                    4026 	.db #0xc0	; 192
      0003A4 C0                    4027 	.db #0xc0	; 192
      0003A5 C0                    4028 	.db #0xc0	; 192
      0003A6 C0                    4029 	.db #0xc0	; 192
      0003A7 C0                    4030 	.db #0xc0	; 192
      0003A8 C0                    4031 	.db #0xc0	; 192
      0003A9 C0                    4032 	.db #0xc0	; 192
      0003AA C0                    4033 	.db #0xc0	; 192
      0003AB C0                    4034 	.db #0xc0	; 192
      0003AC 00                    4035 	.db #0x00	; 0
      0003AD 00                    4036 	.db #0x00	; 0
      0003AE 00                    4037 	.db #0x00	; 0
      0003AF 00                    4038 	.db #0x00	; 0
      0003B0 00                    4039 	.db #0x00	; 0
      0003B1 00                    4040 	.db #0x00	; 0
      0003B2 00                    4041 	.db #0x00	; 0
      0003B3 00                    4042 	.db #0x00	; 0
      0003B4 00                    4043 	.db #0x00	; 0
      0003B5 00                    4044 	.db #0x00	; 0
      0003B6 00                    4045 	.db #0x00	; 0
      0003B7 00                    4046 	.db #0x00	; 0
      0003B8 FF                    4047 	.db #0xff	; 255
      0003B9 FF                    4048 	.db #0xff	; 255
      0003BA FF                    4049 	.db #0xff	; 255
      0003BB FF                    4050 	.db #0xff	; 255
      0003BC 00                    4051 	.db #0x00	; 0
      0003BD 00                    4052 	.db #0x00	; 0
      0003BE 00                    4053 	.db #0x00	; 0
      0003BF 00                    4054 	.db #0x00	; 0
      0003C0 00                    4055 	.db #0x00	; 0
      0003C1 00                    4056 	.db #0x00	; 0
      0003C2 00                    4057 	.db #0x00	; 0
      0003C3 00                    4058 	.db #0x00	; 0
      0003C4 00                    4059 	.db #0x00	; 0
      0003C5 00                    4060 	.db #0x00	; 0
      0003C6 00                    4061 	.db #0x00	; 0
      0003C7 00                    4062 	.db #0x00	; 0
      0003C8 03                    4063 	.db #0x03	; 3
      0003C9 03                    4064 	.db #0x03	; 3
      0003CA 03                    4065 	.db #0x03	; 3
      0003CB 03                    4066 	.db #0x03	; 3
      0003CC 00                    4067 	.db #0x00	; 0
      0003CD 00                    4068 	.db #0x00	; 0
      0003CE 00                    4069 	.db #0x00	; 0
      0003CF 00                    4070 	.db #0x00	; 0
      0003D0 00                    4071 	.db #0x00	; 0
      0003D1 00                    4072 	.db #0x00	; 0
      0003D2 00                    4073 	.db #0x00	; 0
      0003D3 00                    4074 	.db #0x00	; 0
      0003D4 00                    4075 	.db #0x00	; 0
      0003D5 00                    4076 	.db #0x00	; 0
      0003D6 00                    4077 	.db #0x00	; 0
      0003D7 00                    4078 	.db #0x00	; 0
      0003D8 02                    4079 	.db #0x02	; 2
      0003D9 02                    4080 	.db #0x02	; 2
      0003DA 04                    4081 	.db #0x04	; 4
      0003DB 04                    4082 	.db #0x04	; 4
      0003DC 04                    4083 	.db #0x04	; 4
      0003DD 04                    4084 	.db #0x04	; 4
      0003DE 08                    4085 	.db #0x08	; 8
      0003DF 08                    4086 	.db #0x08	; 8
      0003E0 10                    4087 	.db #0x10	; 16
      0003E1 10                    4088 	.db #0x10	; 16
      0003E2 10                    4089 	.db #0x10	; 16
      0003E3 10                    4090 	.db #0x10	; 16
      0003E4 20                    4091 	.db #0x20	; 32
      0003E5 20                    4092 	.db #0x20	; 32
      0003E6 00                    4093 	.db #0x00	; 0
      0003E7 00                    4094 	.db #0x00	; 0
      0003E8 1C                    4095 	.db #0x1c	; 28
      0003E9 1C                    4096 	.db #0x1c	; 28
      0003EA 22                    4097 	.db #0x22	; 34
      0003EB 22                    4098 	.db #0x22	; 34
      0003EC 26                    4099 	.db #0x26	; 38
      0003ED 26                    4100 	.db #0x26	; 38
      0003EE 2A                    4101 	.db #0x2a	; 42
      0003EF 2A                    4102 	.db #0x2a	; 42
      0003F0 32                    4103 	.db #0x32	; 50	'2'
      0003F1 32                    4104 	.db #0x32	; 50	'2'
      0003F2 22                    4105 	.db #0x22	; 34
      0003F3 22                    4106 	.db #0x22	; 34
      0003F4 1C                    4107 	.db #0x1c	; 28
      0003F5 1C                    4108 	.db #0x1c	; 28
      0003F6 00                    4109 	.db #0x00	; 0
      0003F7 00                    4110 	.db #0x00	; 0
      0003F8 08                    4111 	.db #0x08	; 8
      0003F9 08                    4112 	.db #0x08	; 8
      0003FA 18                    4113 	.db #0x18	; 24
      0003FB 18                    4114 	.db #0x18	; 24
      0003FC 08                    4115 	.db #0x08	; 8
      0003FD 08                    4116 	.db #0x08	; 8
      0003FE 08                    4117 	.db #0x08	; 8
      0003FF 08                    4118 	.db #0x08	; 8
      000400 08                    4119 	.db #0x08	; 8
      000401 08                    4120 	.db #0x08	; 8
      000402 08                    4121 	.db #0x08	; 8
      000403 08                    4122 	.db #0x08	; 8
      000404 3E                    4123 	.db #0x3e	; 62
      000405 3E                    4124 	.db #0x3e	; 62
      000406 00                    4125 	.db #0x00	; 0
      000407 00                    4126 	.db #0x00	; 0
      000408 1C                    4127 	.db #0x1c	; 28
      000409 1C                    4128 	.db #0x1c	; 28
      00040A 22                    4129 	.db #0x22	; 34
      00040B 22                    4130 	.db #0x22	; 34
      00040C 02                    4131 	.db #0x02	; 2
      00040D 02                    4132 	.db #0x02	; 2
      00040E 0C                    4133 	.db #0x0c	; 12
      00040F 0C                    4134 	.db #0x0c	; 12
      000410 10                    4135 	.db #0x10	; 16
      000411 10                    4136 	.db #0x10	; 16
      000412 20                    4137 	.db #0x20	; 32
      000413 20                    4138 	.db #0x20	; 32
      000414 3E                    4139 	.db #0x3e	; 62
      000415 3E                    4140 	.db #0x3e	; 62
      000416 00                    4141 	.db #0x00	; 0
      000417 00                    4142 	.db #0x00	; 0
      000418 1C                    4143 	.db #0x1c	; 28
      000419 1C                    4144 	.db #0x1c	; 28
      00041A 22                    4145 	.db #0x22	; 34
      00041B 22                    4146 	.db #0x22	; 34
      00041C 02                    4147 	.db #0x02	; 2
      00041D 02                    4148 	.db #0x02	; 2
      00041E 0C                    4149 	.db #0x0c	; 12
      00041F 0C                    4150 	.db #0x0c	; 12
      000420 02                    4151 	.db #0x02	; 2
      000421 02                    4152 	.db #0x02	; 2
      000422 22                    4153 	.db #0x22	; 34
      000423 22                    4154 	.db #0x22	; 34
      000424 1C                    4155 	.db #0x1c	; 28
      000425 1C                    4156 	.db #0x1c	; 28
      000426 00                    4157 	.db #0x00	; 0
      000427 00                    4158 	.db #0x00	; 0
      000428 06                    4159 	.db #0x06	; 6
      000429 06                    4160 	.db #0x06	; 6
      00042A 0A                    4161 	.db #0x0a	; 10
      00042B 0A                    4162 	.db #0x0a	; 10
      00042C 12                    4163 	.db #0x12	; 18
      00042D 12                    4164 	.db #0x12	; 18
      00042E 22                    4165 	.db #0x22	; 34
      00042F 22                    4166 	.db #0x22	; 34
      000430 3E                    4167 	.db #0x3e	; 62
      000431 3E                    4168 	.db #0x3e	; 62
      000432 02                    4169 	.db #0x02	; 2
      000433 02                    4170 	.db #0x02	; 2
      000434 02                    4171 	.db #0x02	; 2
      000435 02                    4172 	.db #0x02	; 2
      000436 00                    4173 	.db #0x00	; 0
      000437 00                    4174 	.db #0x00	; 0
      000438 3E                    4175 	.db #0x3e	; 62
      000439 3E                    4176 	.db #0x3e	; 62
      00043A 20                    4177 	.db #0x20	; 32
      00043B 20                    4178 	.db #0x20	; 32
      00043C 3C                    4179 	.db #0x3c	; 60
      00043D 3C                    4180 	.db #0x3c	; 60
      00043E 02                    4181 	.db #0x02	; 2
      00043F 02                    4182 	.db #0x02	; 2
      000440 02                    4183 	.db #0x02	; 2
      000441 02                    4184 	.db #0x02	; 2
      000442 22                    4185 	.db #0x22	; 34
      000443 22                    4186 	.db #0x22	; 34
      000444 1C                    4187 	.db #0x1c	; 28
      000445 1C                    4188 	.db #0x1c	; 28
      000446 00                    4189 	.db #0x00	; 0
      000447 00                    4190 	.db #0x00	; 0
      000448 0C                    4191 	.db #0x0c	; 12
      000449 0C                    4192 	.db #0x0c	; 12
      00044A 10                    4193 	.db #0x10	; 16
      00044B 10                    4194 	.db #0x10	; 16
      00044C 20                    4195 	.db #0x20	; 32
      00044D 20                    4196 	.db #0x20	; 32
      00044E 3C                    4197 	.db #0x3c	; 60
      00044F 3C                    4198 	.db #0x3c	; 60
      000450 22                    4199 	.db #0x22	; 34
      000451 22                    4200 	.db #0x22	; 34
      000452 22                    4201 	.db #0x22	; 34
      000453 22                    4202 	.db #0x22	; 34
      000454 1C                    4203 	.db #0x1c	; 28
      000455 1C                    4204 	.db #0x1c	; 28
      000456 00                    4205 	.db #0x00	; 0
      000457 00                    4206 	.db #0x00	; 0
      000458 3E                    4207 	.db #0x3e	; 62
      000459 3E                    4208 	.db #0x3e	; 62
      00045A 22                    4209 	.db #0x22	; 34
      00045B 22                    4210 	.db #0x22	; 34
      00045C 02                    4211 	.db #0x02	; 2
      00045D 02                    4212 	.db #0x02	; 2
      00045E 04                    4213 	.db #0x04	; 4
      00045F 04                    4214 	.db #0x04	; 4
      000460 08                    4215 	.db #0x08	; 8
      000461 08                    4216 	.db #0x08	; 8
      000462 08                    4217 	.db #0x08	; 8
      000463 08                    4218 	.db #0x08	; 8
      000464 08                    4219 	.db #0x08	; 8
      000465 08                    4220 	.db #0x08	; 8
      000466 00                    4221 	.db #0x00	; 0
      000467 00                    4222 	.db #0x00	; 0
      000468 1C                    4223 	.db #0x1c	; 28
      000469 1C                    4224 	.db #0x1c	; 28
      00046A 22                    4225 	.db #0x22	; 34
      00046B 22                    4226 	.db #0x22	; 34
      00046C 22                    4227 	.db #0x22	; 34
      00046D 22                    4228 	.db #0x22	; 34
      00046E 1C                    4229 	.db #0x1c	; 28
      00046F 1C                    4230 	.db #0x1c	; 28
      000470 22                    4231 	.db #0x22	; 34
      000471 22                    4232 	.db #0x22	; 34
      000472 22                    4233 	.db #0x22	; 34
      000473 22                    4234 	.db #0x22	; 34
      000474 1C                    4235 	.db #0x1c	; 28
      000475 1C                    4236 	.db #0x1c	; 28
      000476 00                    4237 	.db #0x00	; 0
      000477 00                    4238 	.db #0x00	; 0
      000478 1C                    4239 	.db #0x1c	; 28
      000479 1C                    4240 	.db #0x1c	; 28
      00047A 22                    4241 	.db #0x22	; 34
      00047B 22                    4242 	.db #0x22	; 34
      00047C 22                    4243 	.db #0x22	; 34
      00047D 22                    4244 	.db #0x22	; 34
      00047E 1E                    4245 	.db #0x1e	; 30
      00047F 1E                    4246 	.db #0x1e	; 30
      000480 02                    4247 	.db #0x02	; 2
      000481 02                    4248 	.db #0x02	; 2
      000482 04                    4249 	.db #0x04	; 4
      000483 04                    4250 	.db #0x04	; 4
      000484 18                    4251 	.db #0x18	; 24
      000485 18                    4252 	.db #0x18	; 24
      000486 00                    4253 	.db #0x00	; 0
      000487 00                    4254 	.db #0x00	; 0
      000488 00                    4255 	.db #0x00	; 0
      000489 FF                    4256 	.db #0xff	; 255
      00048A 7E                    4257 	.db #0x7e	; 126
      00048B 81                    4258 	.db #0x81	; 129
      00048C 7E                    4259 	.db #0x7e	; 126
      00048D 81                    4260 	.db #0x81	; 129
      00048E 7E                    4261 	.db #0x7e	; 126
      00048F 81                    4262 	.db #0x81	; 129
      000490 7E                    4263 	.db #0x7e	; 126
      000491 81                    4264 	.db #0x81	; 129
      000492 7E                    4265 	.db #0x7e	; 126
      000493 81                    4266 	.db #0x81	; 129
      000494 7E                    4267 	.db #0x7e	; 126
      000495 81                    4268 	.db #0x81	; 129
      000496 00                    4269 	.db #0x00	; 0
      000497 FF                    4270 	.db #0xff	; 255
      000498                       4271 __xinit__Coin:
      000498 00                    4272 	.db #0x00	; 0
      000499 00                    4273 	.db #0x00	; 0
      00049A 00                    4274 	.db #0x00	; 0
      00049B 00                    4275 	.db #0x00	; 0
      00049C 00                    4276 	.db #0x00	; 0
      00049D 00                    4277 	.db #0x00	; 0
      00049E 00                    4278 	.db #0x00	; 0
      00049F 00                    4279 	.db #0x00	; 0
      0004A0 7E                    4280 	.db #0x7e	; 126
      0004A1 7E                    4281 	.db #0x7e	; 126
      0004A2 81                    4282 	.db #0x81	; 129
      0004A3 A9                    4283 	.db #0xa9	; 169
      0004A4 81                    4284 	.db #0x81	; 129
      0004A5 FD                    4285 	.db #0xfd	; 253
      0004A6 81                    4286 	.db #0x81	; 129
      0004A7 A3                    4287 	.db #0xa3	; 163
      0004A8 81                    4288 	.db #0x81	; 129
      0004A9 BD                    4289 	.db #0xbd	; 189
      0004AA 81                    4290 	.db #0x81	; 129
      0004AB A3                    4291 	.db #0xa3	; 163
      0004AC 81                    4292 	.db #0x81	; 129
      0004AD FD                    4293 	.db #0xfd	; 253
      0004AE 7E                    4294 	.db #0x7e	; 126
      0004AF 7E                    4295 	.db #0x7e	; 126
      0004B0 00                    4296 	.db #0x00	; 0
      0004B1 00                    4297 	.db #0x00	; 0
      0004B2 00                    4298 	.db #0x00	; 0
      0004B3 00                    4299 	.db #0x00	; 0
      0004B4 00                    4300 	.db #0x00	; 0
      0004B5 00                    4301 	.db #0x00	; 0
      0004B6 00                    4302 	.db #0x00	; 0
      0004B7 00                    4303 	.db #0x00	; 0
      0004B8 00                    4304 	.db #0x00	; 0
      0004B9 00                    4305 	.db #0x00	; 0
      0004BA 00                    4306 	.db #0x00	; 0
      0004BB 00                    4307 	.db #0x00	; 0
      0004BC 00                    4308 	.db #0x00	; 0
      0004BD 00                    4309 	.db #0x00	; 0
      0004BE 00                    4310 	.db #0x00	; 0
      0004BF 00                    4311 	.db #0x00	; 0
      0004C0 3C                    4312 	.db #0x3c	; 60
      0004C1 3C                    4313 	.db #0x3c	; 60
      0004C2 42                    4314 	.db #0x42	; 66	'B'
      0004C3 6A                    4315 	.db #0x6a	; 106	'j'
      0004C4 42                    4316 	.db #0x42	; 66	'B'
      0004C5 7A                    4317 	.db #0x7a	; 122	'z'
      0004C6 42                    4318 	.db #0x42	; 66	'B'
      0004C7 66                    4319 	.db #0x66	; 102	'f'
      0004C8 42                    4320 	.db #0x42	; 66	'B'
      0004C9 7A                    4321 	.db #0x7a	; 122	'z'
      0004CA 42                    4322 	.db #0x42	; 66	'B'
      0004CB 66                    4323 	.db #0x66	; 102	'f'
      0004CC 42                    4324 	.db #0x42	; 66	'B'
      0004CD 7A                    4325 	.db #0x7a	; 122	'z'
      0004CE 3C                    4326 	.db #0x3c	; 60
      0004CF 3C                    4327 	.db #0x3c	; 60
      0004D0 00                    4328 	.db #0x00	; 0
      0004D1 00                    4329 	.db #0x00	; 0
      0004D2 00                    4330 	.db #0x00	; 0
      0004D3 00                    4331 	.db #0x00	; 0
      0004D4 00                    4332 	.db #0x00	; 0
      0004D5 00                    4333 	.db #0x00	; 0
      0004D6 00                    4334 	.db #0x00	; 0
      0004D7 00                    4335 	.db #0x00	; 0
      0004D8 00                    4336 	.db #0x00	; 0
      0004D9 00                    4337 	.db #0x00	; 0
      0004DA 00                    4338 	.db #0x00	; 0
      0004DB 00                    4339 	.db #0x00	; 0
      0004DC 00                    4340 	.db #0x00	; 0
      0004DD 00                    4341 	.db #0x00	; 0
      0004DE 00                    4342 	.db #0x00	; 0
      0004DF 00                    4343 	.db #0x00	; 0
      0004E0 18                    4344 	.db #0x18	; 24
      0004E1 18                    4345 	.db #0x18	; 24
      0004E2 24                    4346 	.db #0x24	; 36
      0004E3 3C                    4347 	.db #0x3c	; 60
      0004E4 24                    4348 	.db #0x24	; 36
      0004E5 3C                    4349 	.db #0x3c	; 60
      0004E6 24                    4350 	.db #0x24	; 36
      0004E7 3C                    4351 	.db #0x3c	; 60
      0004E8 24                    4352 	.db #0x24	; 36
      0004E9 3C                    4353 	.db #0x3c	; 60
      0004EA 24                    4354 	.db #0x24	; 36
      0004EB 3C                    4355 	.db #0x3c	; 60
      0004EC 24                    4356 	.db #0x24	; 36
      0004ED 3C                    4357 	.db #0x3c	; 60
      0004EE 18                    4358 	.db #0x18	; 24
      0004EF 18                    4359 	.db #0x18	; 24
      0004F0 00                    4360 	.db #0x00	; 0
      0004F1 00                    4361 	.db #0x00	; 0
      0004F2 00                    4362 	.db #0x00	; 0
      0004F3 00                    4363 	.db #0x00	; 0
      0004F4 00                    4364 	.db #0x00	; 0
      0004F5 00                    4365 	.db #0x00	; 0
      0004F6 00                    4366 	.db #0x00	; 0
      0004F7 00                    4367 	.db #0x00	; 0
      0004F8 00                    4368 	.db #0x00	; 0
      0004F9 00                    4369 	.db #0x00	; 0
      0004FA 00                    4370 	.db #0x00	; 0
      0004FB 00                    4371 	.db #0x00	; 0
      0004FC 00                    4372 	.db #0x00	; 0
      0004FD 00                    4373 	.db #0x00	; 0
      0004FE 00                    4374 	.db #0x00	; 0
      0004FF 00                    4375 	.db #0x00	; 0
      000500 10                    4376 	.db #0x10	; 16
      000501 10                    4377 	.db #0x10	; 16
      000502 18                    4378 	.db #0x18	; 24
      000503 18                    4379 	.db #0x18	; 24
      000504 18                    4380 	.db #0x18	; 24
      000505 18                    4381 	.db #0x18	; 24
      000506 18                    4382 	.db #0x18	; 24
      000507 18                    4383 	.db #0x18	; 24
      000508 18                    4384 	.db #0x18	; 24
      000509 18                    4385 	.db #0x18	; 24
      00050A 18                    4386 	.db #0x18	; 24
      00050B 18                    4387 	.db #0x18	; 24
      00050C 18                    4388 	.db #0x18	; 24
      00050D 18                    4389 	.db #0x18	; 24
      00050E 08                    4390 	.db #0x08	; 8
      00050F 08                    4391 	.db #0x08	; 8
      000510 00                    4392 	.db #0x00	; 0
      000511 00                    4393 	.db #0x00	; 0
      000512 00                    4394 	.db #0x00	; 0
      000513 00                    4395 	.db #0x00	; 0
      000514 00                    4396 	.db #0x00	; 0
      000515 00                    4397 	.db #0x00	; 0
      000516 00                    4398 	.db #0x00	; 0
      000517 00                    4399 	.db #0x00	; 0
      000518                       4400 __xinit__Water:
      000518 00                    4401 	.db #0x00	; 0
      000519 00                    4402 	.db #0x00	; 0
      00051A 00                    4403 	.db #0x00	; 0
      00051B 00                    4404 	.db #0x00	; 0
      00051C 00                    4405 	.db #0x00	; 0
      00051D 00                    4406 	.db #0x00	; 0
      00051E 00                    4407 	.db #0x00	; 0
      00051F 00                    4408 	.db #0x00	; 0
      000520 42                    4409 	.db #0x42	; 66	'B'
      000521 7E                    4410 	.db #0x7e	; 126
      000522 24                    4411 	.db #0x24	; 36
      000523 3C                    4412 	.db #0x3c	; 60
      000524 24                    4413 	.db #0x24	; 36
      000525 24                    4414 	.db #0x24	; 36
      000526 42                    4415 	.db #0x42	; 66	'B'
      000527 42                    4416 	.db #0x42	; 66	'B'
      000528 FF                    4417 	.db #0xff	; 255
      000529 81                    4418 	.db #0x81	; 129
      00052A FF                    4419 	.db #0xff	; 255
      00052B 81                    4420 	.db #0x81	; 129
      00052C FF                    4421 	.db #0xff	; 255
      00052D 81                    4422 	.db #0x81	; 129
      00052E 7E                    4423 	.db #0x7e	; 126
      00052F 7E                    4424 	.db #0x7e	; 126
      000530 00                    4425 	.db #0x00	; 0
      000531 00                    4426 	.db #0x00	; 0
      000532 00                    4427 	.db #0x00	; 0
      000533 00                    4428 	.db #0x00	; 0
      000534 00                    4429 	.db #0x00	; 0
      000535 00                    4430 	.db #0x00	; 0
      000536 00                    4431 	.db #0x00	; 0
      000537 00                    4432 	.db #0x00	; 0
      000538                       4433 __xinit___countBrick:
      000538 05                    4434 	.db #0x05	; 5
      000539                       4435 __xinit___countStone:
      000539 02                    4436 	.db #0x02	; 2
      00053A                       4437 __xinit___countCoin:
      00053A 03                    4438 	.db #0x03	; 3
      00053B                       4439 __xinit___countWater:
      00053B 03                    4440 	.db #0x03	; 3
      00053C                       4441 __xinit___player:
      00053C 00                    4442 	.db #0x00	;  0
      00053D 00                    4443 	.db #0x00	;  0
      00053E 00                    4444 	.db #0x00	;  0
      00053F 00                    4445 	.db #0x00	;  0
      000540 01                    4446 	.db #0x01	;  1
      000541 00 00                 4447 	.dw #0x0000
      000543 E8 03                 4448 	.dw #0x03e8
      000545                       4449 __xinit___bonus:
      000545 00                    4450 	.db #0x00	; 0
      000546 00                    4451 	.db #0x00	; 0
                                   4452 	.area _CABS (ABS)
